	.arch armv6
	.fpu softvfp
	.eabi_attribute 20, 1
	.eabi_attribute 21, 1
	.eabi_attribute 23, 3
	.eabi_attribute 24, 1
	.eabi_attribute 25, 1
	.eabi_attribute 26, 2
	.eabi_attribute 30, 2
	.eabi_attribute 34, 1
	.eabi_attribute 18, 2
	.file	"Iw2DSceneGraph.cpp"
	.section	.text._ZN14Iw2DSceneGraph9CDrawableD2Ev,"axG",%progbits,_ZN14Iw2DSceneGraph9CDrawableD5Ev,comdat
	.align	2
	.weak	_ZN14Iw2DSceneGraph9CDrawableD2Ev
	.hidden	_ZN14Iw2DSceneGraph9CDrawableD2Ev
	.type	_ZN14Iw2DSceneGraph9CDrawableD2Ev, %function
_ZN14Iw2DSceneGraph9CDrawableD2Ev:
	@ args = 0, pretend = 0, frame = 0
	@ frame_needed = 0, uses_anonymous_args = 0
	ldr	r3, .L2
	stmfd	sp!, {r4, lr}
.LPIC0:
	add	r3, pc, r3
	add	r3, r3, #8
	mov	r4, r0
	str	r3, [r0]
	bl	_ZN18Iw2DSceneGraphCore5CNodeD2Ev(PLT)
	mov	r0, r4
	ldmfd	sp!, {r4, pc}
.L3:
	.align	2
.L2:
	.word	.LANCHOR0-(.LPIC0+8)
	.size	_ZN14Iw2DSceneGraph9CDrawableD2Ev, .-_ZN14Iw2DSceneGraph9CDrawableD2Ev
	.weak	_ZN14Iw2DSceneGraph9CDrawableD1Ev
	.hidden	_ZN14Iw2DSceneGraph9CDrawableD1Ev
	.set	_ZN14Iw2DSceneGraph9CDrawableD1Ev,_ZN14Iw2DSceneGraph9CDrawableD2Ev
	.section	.text._ZN14Iw2DSceneGraph9CDrawableD0Ev,"axG",%progbits,_ZN14Iw2DSceneGraph9CDrawableD0Ev,comdat
	.align	2
	.weak	_ZN14Iw2DSceneGraph9CDrawableD0Ev
	.hidden	_ZN14Iw2DSceneGraph9CDrawableD0Ev
	.type	_ZN14Iw2DSceneGraph9CDrawableD0Ev, %function
_ZN14Iw2DSceneGraph9CDrawableD0Ev:
	@ args = 0, pretend = 0, frame = 0
	@ frame_needed = 0, uses_anonymous_args = 0
	ldr	r3, .L5
	stmfd	sp!, {r4, lr}
.LPIC1:
	add	r3, pc, r3
	add	r3, r3, #8
	mov	r4, r0
	str	r3, [r0]
	bl	_ZN18Iw2DSceneGraphCore5CNodeD2Ev(PLT)
	mov	r0, r4
	bl	_ZdlPv(PLT)
	mov	r0, r4
	ldmfd	sp!, {r4, pc}
.L6:
	.align	2
.L5:
	.word	.LANCHOR0-(.LPIC1+8)
	.size	_ZN14Iw2DSceneGraph9CDrawableD0Ev, .-_ZN14Iw2DSceneGraph9CDrawableD0Ev
	.section	.text._ZN14Iw2DSceneGraph7CSpriteD2Ev,"axG",%progbits,_ZN14Iw2DSceneGraph7CSpriteD5Ev,comdat
	.align	2
	.weak	_ZN14Iw2DSceneGraph7CSpriteD2Ev
	.hidden	_ZN14Iw2DSceneGraph7CSpriteD2Ev
	.type	_ZN14Iw2DSceneGraph7CSpriteD2Ev, %function
_ZN14Iw2DSceneGraph7CSpriteD2Ev:
	@ args = 0, pretend = 0, frame = 0
	@ frame_needed = 0, uses_anonymous_args = 0
	ldr	r3, .L8
	stmfd	sp!, {r4, lr}
.LPIC2:
	add	r3, pc, r3
	add	r3, r3, #8
	mov	r4, r0
	str	r3, [r0]
	bl	_ZN18Iw2DSceneGraphCore5CNodeD2Ev(PLT)
	mov	r0, r4
	ldmfd	sp!, {r4, pc}
.L9:
	.align	2
.L8:
	.word	.LANCHOR0-(.LPIC2+8)
	.size	_ZN14Iw2DSceneGraph7CSpriteD2Ev, .-_ZN14Iw2DSceneGraph7CSpriteD2Ev
	.weak	_ZN14Iw2DSceneGraph7CSpriteD1Ev
	.hidden	_ZN14Iw2DSceneGraph7CSpriteD1Ev
	.set	_ZN14Iw2DSceneGraph7CSpriteD1Ev,_ZN14Iw2DSceneGraph7CSpriteD2Ev
	.section	.text._ZN14Iw2DSceneGraph7CSpriteD0Ev,"axG",%progbits,_ZN14Iw2DSceneGraph7CSpriteD0Ev,comdat
	.align	2
	.weak	_ZN14Iw2DSceneGraph7CSpriteD0Ev
	.hidden	_ZN14Iw2DSceneGraph7CSpriteD0Ev
	.type	_ZN14Iw2DSceneGraph7CSpriteD0Ev, %function
_ZN14Iw2DSceneGraph7CSpriteD0Ev:
	@ args = 0, pretend = 0, frame = 0
	@ frame_needed = 0, uses_anonymous_args = 0
	ldr	r3, .L11
	stmfd	sp!, {r4, lr}
.LPIC4:
	add	r3, pc, r3
	add	r3, r3, #8
	mov	r4, r0
	str	r3, [r0]
	bl	_ZN18Iw2DSceneGraphCore5CNodeD2Ev(PLT)
	mov	r0, r4
	bl	_ZdlPv(PLT)
	mov	r0, r4
	ldmfd	sp!, {r4, pc}
.L12:
	.align	2
.L11:
	.word	.LANCHOR0-(.LPIC4+8)
	.size	_ZN14Iw2DSceneGraph7CSpriteD0Ev, .-_ZN14Iw2DSceneGraph7CSpriteD0Ev
	.section	.text._ZN14Iw2DSceneGraph6CLabelD2Ev,"axG",%progbits,_ZN14Iw2DSceneGraph6CLabelD5Ev,comdat
	.align	2
	.weak	_ZN14Iw2DSceneGraph6CLabelD2Ev
	.hidden	_ZN14Iw2DSceneGraph6CLabelD2Ev
	.type	_ZN14Iw2DSceneGraph6CLabelD2Ev, %function
_ZN14Iw2DSceneGraph6CLabelD2Ev:
	@ args = 0, pretend = 0, frame = 0
	@ frame_needed = 0, uses_anonymous_args = 0
	ldr	r3, .L19
	stmfd	sp!, {r4, lr}
	mov	r4, r0
	ldr	r0, [r0, #140]
.LPIC6:
	add	r3, pc, r3
	add	r3, r3, #72
	cmp	r0, #0
	str	r3, [r4]
	beq	.L14
	bl	free(PLT)
.L14:
	ldr	r3, .L19+4
	mov	r0, r4
.LPIC7:
	add	r3, pc, r3
	add	r3, r3, #8
	str	r3, [r4]
	bl	_ZN18Iw2DSceneGraphCore5CNodeD2Ev(PLT)
	mov	r0, r4
	ldmfd	sp!, {r4, pc}
.L20:
	.align	2
.L19:
	.word	.LANCHOR0-(.LPIC6+8)
	.word	.LANCHOR0-(.LPIC7+8)
	.size	_ZN14Iw2DSceneGraph6CLabelD2Ev, .-_ZN14Iw2DSceneGraph6CLabelD2Ev
	.weak	_ZN14Iw2DSceneGraph6CLabelD1Ev
	.hidden	_ZN14Iw2DSceneGraph6CLabelD1Ev
	.set	_ZN14Iw2DSceneGraph6CLabelD1Ev,_ZN14Iw2DSceneGraph6CLabelD2Ev
	.global	__aeabi_i2f
	.global	__aeabi_fmul
	.global	__aeabi_f2uiz
	.section	.text._ZN14Iw2DSceneGraph9CDrawable9PreRenderEv,"ax",%progbits
	.align	2
	.global	_ZN14Iw2DSceneGraph9CDrawable9PreRenderEv
	.hidden	_ZN14Iw2DSceneGraph9CDrawable9PreRenderEv
	.type	_ZN14Iw2DSceneGraph9CDrawable9PreRenderEv, %function
_ZN14Iw2DSceneGraph9CDrawable9PreRenderEv:
	@ args = 0, pretend = 0, frame = 0
	@ frame_needed = 0, uses_anonymous_args = 0
	stmfd	sp!, {r4, lr}
	mov	r4, r0
	add	r0, r0, #92
	bl	_Z22Iw2DSetTransformMatrixRK9CIwFMat2D(PLT)
	ldrb	r0, [r4, #119]	@ zero_extendqisi2
	bl	__aeabi_i2f(PLT)
	ldr	r1, [r4, #40]	@ float
	bl	__aeabi_fmul(PLT)
	bl	__aeabi_f2uiz(PLT)
	ldr	r3, [r4, #116]
	ldmfd	sp!, {r4, lr}
	bic	r3, r3, #-16777216
	add	r0, r3, r0, asl #24
	b	_Z13Iw2DSetColourj(PLT)
	.size	_ZN14Iw2DSceneGraph9CDrawable9PreRenderEv, .-_ZN14Iw2DSceneGraph9CDrawable9PreRenderEv
	.section	.text._ZN14Iw2DSceneGraph6CLabelD0Ev,"axG",%progbits,_ZN14Iw2DSceneGraph6CLabelD0Ev,comdat
	.align	2
	.weak	_ZN14Iw2DSceneGraph6CLabelD0Ev
	.hidden	_ZN14Iw2DSceneGraph6CLabelD0Ev
	.type	_ZN14Iw2DSceneGraph6CLabelD0Ev, %function
_ZN14Iw2DSceneGraph6CLabelD0Ev:
	@ args = 0, pretend = 0, frame = 0
	@ frame_needed = 0, uses_anonymous_args = 0
	ldr	r3, .L27
	stmfd	sp!, {r4, lr}
	mov	r4, r0
	ldr	r0, [r0, #140]
.LPIC8:
	add	r3, pc, r3
	add	r3, r3, #72
	cmp	r0, #0
	str	r3, [r4]
	beq	.L23
	bl	free(PLT)
.L23:
	ldr	r3, .L27+4
	mov	r0, r4
.LPIC9:
	add	r3, pc, r3
	add	r3, r3, #8
	str	r3, [r4]
	bl	_ZN18Iw2DSceneGraphCore5CNodeD2Ev(PLT)
	mov	r0, r4
	bl	_ZdlPv(PLT)
	mov	r0, r4
	ldmfd	sp!, {r4, pc}
.L28:
	.align	2
.L27:
	.word	.LANCHOR0-(.LPIC8+8)
	.word	.LANCHOR0-(.LPIC9+8)
	.size	_ZN14Iw2DSceneGraph6CLabelD0Ev, .-_ZN14Iw2DSceneGraph6CLabelD0Ev
	.section	.text._ZN14Iw2DSceneGraph6CColorC2Ev,"ax",%progbits
	.align	2
	.global	_ZN14Iw2DSceneGraph6CColorC2Ev
	.hidden	_ZN14Iw2DSceneGraph6CColorC2Ev
	.type	_ZN14Iw2DSceneGraph6CColorC2Ev, %function
_ZN14Iw2DSceneGraph6CColorC2Ev:
	@ args = 0, pretend = 0, frame = 0
	@ frame_needed = 0, uses_anonymous_args = 0
	@ link register save eliminated.
	mvn	r2, #0
	strb	r2, [r0, #3]
	strb	r2, [r0, #2]
	strb	r2, [r0, #1]
	strb	r2, [r0]
	bx	lr
	.size	_ZN14Iw2DSceneGraph6CColorC2Ev, .-_ZN14Iw2DSceneGraph6CColorC2Ev
	.global	_ZN14Iw2DSceneGraph6CColorC1Ev
	.hidden	_ZN14Iw2DSceneGraph6CColorC1Ev
	.set	_ZN14Iw2DSceneGraph6CColorC1Ev,_ZN14Iw2DSceneGraph6CColorC2Ev
	.section	.text._ZN14Iw2DSceneGraph6CColorC2Ehhhh,"ax",%progbits
	.align	2
	.global	_ZN14Iw2DSceneGraph6CColorC2Ehhhh
	.hidden	_ZN14Iw2DSceneGraph6CColorC2Ehhhh
	.type	_ZN14Iw2DSceneGraph6CColorC2Ehhhh, %function
_ZN14Iw2DSceneGraph6CColorC2Ehhhh:
	@ args = 4, pretend = 0, frame = 0
	@ frame_needed = 0, uses_anonymous_args = 0
	@ link register save eliminated.
	str	r4, [sp, #-4]!
	ldrb	r4, [sp, #4]	@ zero_extendqisi2
	strb	r1, [r0]
	strb	r2, [r0, #1]
	strb	r4, [r0, #3]
	strb	r3, [r0, #2]
	ldr	r4, [sp], #4
	bx	lr
	.size	_ZN14Iw2DSceneGraph6CColorC2Ehhhh, .-_ZN14Iw2DSceneGraph6CColorC2Ehhhh
	.global	_ZN14Iw2DSceneGraph6CColorC1Ehhhh
	.hidden	_ZN14Iw2DSceneGraph6CColorC1Ehhhh
	.set	_ZN14Iw2DSceneGraph6CColorC1Ehhhh,_ZN14Iw2DSceneGraph6CColorC2Ehhhh
	.section	.text._ZN14Iw2DSceneGraph6CAtlasC2Ev,"ax",%progbits
	.align	2
	.global	_ZN14Iw2DSceneGraph6CAtlasC2Ev
	.hidden	_ZN14Iw2DSceneGraph6CAtlasC2Ev
	.type	_ZN14Iw2DSceneGraph6CAtlasC2Ev, %function
_ZN14Iw2DSceneGraph6CAtlasC2Ev:
	@ args = 0, pretend = 0, frame = 0
	@ frame_needed = 0, uses_anonymous_args = 0
	@ link register save eliminated.
	mov	r2, #0
	str	r2, [r0]
	str	r2, [r0, #4]
	str	r2, [r0, #8]
	str	r2, [r0, #12]
	bx	lr
	.size	_ZN14Iw2DSceneGraph6CAtlasC2Ev, .-_ZN14Iw2DSceneGraph6CAtlasC2Ev
	.global	_ZN14Iw2DSceneGraph6CAtlasC1Ev
	.hidden	_ZN14Iw2DSceneGraph6CAtlasC1Ev
	.set	_ZN14Iw2DSceneGraph6CAtlasC1Ev,_ZN14Iw2DSceneGraph6CAtlasC2Ev
	.global	__aeabi_f2iz
	.section	.text._ZN14Iw2DSceneGraph6CAtlasC2EiiiP10CIw2DImage,"ax",%progbits
	.align	2
	.global	_ZN14Iw2DSceneGraph6CAtlasC2EiiiP10CIw2DImage
	.hidden	_ZN14Iw2DSceneGraph6CAtlasC2EiiiP10CIw2DImage
	.type	_ZN14Iw2DSceneGraph6CAtlasC2EiiiP10CIw2DImage, %function
_ZN14Iw2DSceneGraph6CAtlasC2EiiiP10CIw2DImage:
	@ args = 4, pretend = 0, frame = 40
	@ frame_needed = 0, uses_anonymous_args = 0
	stmfd	sp!, {r4, r5, r6, r7, r8, r9, r10, fp, lr}
	sub	sp, sp, #44
	mov	r5, r0
	ldr	ip, [sp, #80]
	mov	r7, #0
	str	r1, [r5, #16]
	str	r2, [sp, #24]
	str	ip, [r0]
	str	r2, [r0, #20]
	str	r7, [r0, #4]
	str	r7, [r0, #8]
	str	r7, [r0, #12]
	ldr	r2, [ip]
	mov	r0, ip
	mov	fp, r3
	ldr	r3, [r2]
	mov	r10, r1
	blx	r3
	bl	__aeabi_f2iz(PLT)
	cmp	fp, r7
	str	r0, [sp, #12]
	ble	.L50
	ldr	r2, [sp, #24]
	uxth	r1, r10
	mov	ip, fp
	uxth	r2, r2
	mov	r6, r7
	str	r1, [sp, #20]
	str	r2, [sp, #16]
	mov	r8, r7
	mov	fp, r10
	b	.L45
.L53:
	ldr	r3, [sp, #20]
	ldr	r1, [sp, #16]
	strh	r10, [r4]	@ movhi
	strh	r9, [r4, #2]	@ movhi
	strh	r3, [r4, #4]	@ movhi
	strh	r1, [r4, #6]	@ movhi
	ldr	r3, [r5, #8]
	add	r3, r3, #8
	str	r3, [r5, #8]
.L35:
	ldr	r1, [sp, #12]
	add	r6, r6, fp
	cmp	r1, r6
	add	r7, r7, #1
	ldrle	r2, [sp, #24]
	movle	r6, #0
	addle	r8, r8, r2
	cmp	r7, ip
	beq	.L50
.L45:
	ldr	r4, [r5, #8]
	ldr	r3, [r5, #12]
	uxth	r10, r6
	cmp	r4, r3
	uxth	r9, r8
	bne	.L53
	ldr	r2, [r5, #4]
	rsb	r3, r2, r4
	str	r2, [sp, #32]
	movs	r3, r3, asr #3
	beq	.L46
	movs	r3, r3, asl #1
	streq	r3, [sp, #36]
	streq	r3, [sp, #28]
	moveq	r3, #8
	bne	.L36
.L37:
	ldr	r2, [sp, #32]
	cmp	r4, r2
	beq	.L48
	ldr	r3, [sp, #28]
	add	r2, r3, #8
	ldr	r3, [sp, #32]
.L41:
	ldr	r0, [r3]	@ unaligned
	ldr	r1, [r3, #4]	@ unaligned
	add	r3, r3, #8
	cmp	r4, r3
	str	r0, [r2, #-8]	@ unaligned
	str	r1, [r2, #-4]	@ unaligned
	add	r2, r2, #8
	bne	.L41
	ldr	r1, [sp, #32]
	ldr	r3, [sp, #28]
	add	r2, r1, #8
	rsb	r2, r2, r4
	bic	r2, r2, #7
	add	r2, r2, #8
	add	r2, r3, r2
	add	r3, r2, #8
.L39:
	ldr	r1, [sp, #20]
	strh	r10, [r2]	@ movhi
	strh	r1, [r2, #4]	@ movhi
	ldr	r1, [sp, #16]
	strh	r9, [r2, #2]	@ movhi
	strh	r1, [r2, #6]	@ movhi
	ldr	r0, [r5, #4]
	cmp	r0, #0
	beq	.L42
	str	r3, [sp, #8]
	str	ip, [sp, #4]
	bl	free(PLT)
	ldr	ip, [sp, #4]
	ldr	r3, [sp, #8]
.L42:
	ldr	r1, [sp, #28]
	ldr	r0, [sp, #36]
	add	r2, r1, r0
	str	r2, [r5, #12]
	stmib	r5, {r1, r3}
	b	.L35
.L50:
	mov	r0, r5
	add	sp, sp, #44
	@ sp needed
	ldmfd	sp!, {r4, r5, r6, r7, r8, r9, r10, fp, pc}
.L46:
	mov	r3, #1
.L36:
	mov	r3, r3, asl #3
	mov	r0, r3
	str	ip, [sp, #4]
	str	r3, [sp, #36]
	bl	malloc(PLT)
	ldr	ip, [sp, #4]
	cmp	r0, #0
	str	r0, [sp, #28]
	beq	.L54
.L38:
	ldr	r1, [sp, #28]
	add	r3, r1, #8
	b	.L37
.L48:
	ldr	r2, [sp, #28]
	b	.L39
.L54:
	ldr	r0, [sp, #36]
	bl	_ZN4_STL14__malloc_allocILi0EE13_S_oom_mallocEj(PLT)
	ldr	r3, [r5, #4]
	ldr	ip, [sp, #4]
	str	r3, [sp, #32]
	str	r0, [sp, #28]
	b	.L38
	.size	_ZN14Iw2DSceneGraph6CAtlasC2EiiiP10CIw2DImage, .-_ZN14Iw2DSceneGraph6CAtlasC2EiiiP10CIw2DImage
	.global	_ZN14Iw2DSceneGraph6CAtlasC1EiiiP10CIw2DImage
	.hidden	_ZN14Iw2DSceneGraph6CAtlasC1EiiiP10CIw2DImage
	.set	_ZN14Iw2DSceneGraph6CAtlasC1EiiiP10CIw2DImage,_ZN14Iw2DSceneGraph6CAtlasC2EiiiP10CIw2DImage
	.section	.text._ZN14Iw2DSceneGraph6CAtlas8GetImageEv,"ax",%progbits
	.align	2
	.global	_ZN14Iw2DSceneGraph6CAtlas8GetImageEv
	.hidden	_ZN14Iw2DSceneGraph6CAtlas8GetImageEv
	.type	_ZN14Iw2DSceneGraph6CAtlas8GetImageEv, %function
_ZN14Iw2DSceneGraph6CAtlas8GetImageEv:
	@ args = 0, pretend = 0, frame = 0
	@ frame_needed = 0, uses_anonymous_args = 0
	@ link register save eliminated.
	ldr	r0, [r0]
	bx	lr
	.size	_ZN14Iw2DSceneGraph6CAtlas8GetImageEv, .-_ZN14Iw2DSceneGraph6CAtlas8GetImageEv
	.section	.text._ZNK14Iw2DSceneGraph6CAtlas12GetNumFramesEv,"ax",%progbits
	.align	2
	.global	_ZNK14Iw2DSceneGraph6CAtlas12GetNumFramesEv
	.hidden	_ZNK14Iw2DSceneGraph6CAtlas12GetNumFramesEv
	.type	_ZNK14Iw2DSceneGraph6CAtlas12GetNumFramesEv, %function
_ZNK14Iw2DSceneGraph6CAtlas12GetNumFramesEv:
	@ args = 0, pretend = 0, frame = 0
	@ frame_needed = 0, uses_anonymous_args = 0
	@ link register save eliminated.
	ldr	r2, [r0, #8]
	ldr	r3, [r0, #4]
	rsb	r0, r3, r2
	mov	r0, r0, asr #3
	bx	lr
	.size	_ZNK14Iw2DSceneGraph6CAtlas12GetNumFramesEv, .-_ZNK14Iw2DSceneGraph6CAtlas12GetNumFramesEv
	.section	.text._ZNK14Iw2DSceneGraph6CAtlas13GetFrameWidthEv,"ax",%progbits
	.align	2
	.global	_ZNK14Iw2DSceneGraph6CAtlas13GetFrameWidthEv
	.hidden	_ZNK14Iw2DSceneGraph6CAtlas13GetFrameWidthEv
	.type	_ZNK14Iw2DSceneGraph6CAtlas13GetFrameWidthEv, %function
_ZNK14Iw2DSceneGraph6CAtlas13GetFrameWidthEv:
	@ args = 0, pretend = 0, frame = 0
	@ frame_needed = 0, uses_anonymous_args = 0
	@ link register save eliminated.
	ldr	r0, [r0, #16]
	bx	lr
	.size	_ZNK14Iw2DSceneGraph6CAtlas13GetFrameWidthEv, .-_ZNK14Iw2DSceneGraph6CAtlas13GetFrameWidthEv
	.section	.text._ZNK14Iw2DSceneGraph6CAtlas14GetFrameHeightEv,"ax",%progbits
	.align	2
	.global	_ZNK14Iw2DSceneGraph6CAtlas14GetFrameHeightEv
	.hidden	_ZNK14Iw2DSceneGraph6CAtlas14GetFrameHeightEv
	.type	_ZNK14Iw2DSceneGraph6CAtlas14GetFrameHeightEv, %function
_ZNK14Iw2DSceneGraph6CAtlas14GetFrameHeightEv:
	@ args = 0, pretend = 0, frame = 0
	@ frame_needed = 0, uses_anonymous_args = 0
	@ link register save eliminated.
	ldr	r0, [r0, #20]
	bx	lr
	.size	_ZNK14Iw2DSceneGraph6CAtlas14GetFrameHeightEv, .-_ZNK14Iw2DSceneGraph6CAtlas14GetFrameHeightEv
	.section	.text._ZNK14Iw2DSceneGraph6CAtlas8GetFrameEi,"ax",%progbits
	.align	2
	.global	_ZNK14Iw2DSceneGraph6CAtlas8GetFrameEi
	.hidden	_ZNK14Iw2DSceneGraph6CAtlas8GetFrameEi
	.type	_ZNK14Iw2DSceneGraph6CAtlas8GetFrameEi, %function
_ZNK14Iw2DSceneGraph6CAtlas8GetFrameEi:
	@ args = 0, pretend = 0, frame = 0
	@ frame_needed = 0, uses_anonymous_args = 0
	@ link register save eliminated.
	ldr	r0, [r0, #4]
	add	r0, r0, r1, asl #3
	bx	lr
	.size	_ZNK14Iw2DSceneGraph6CAtlas8GetFrameEi, .-_ZNK14Iw2DSceneGraph6CAtlas8GetFrameEi
	.section	.text._ZN14Iw2DSceneGraph9CDrawableC2Ev,"ax",%progbits
	.align	2
	.global	_ZN14Iw2DSceneGraph9CDrawableC2Ev
	.hidden	_ZN14Iw2DSceneGraph9CDrawableC2Ev
	.type	_ZN14Iw2DSceneGraph9CDrawableC2Ev, %function
_ZN14Iw2DSceneGraph9CDrawableC2Ev:
	@ args = 0, pretend = 0, frame = 0
	@ frame_needed = 0, uses_anonymous_args = 0
	stmfd	sp!, {r4, lr}
	mov	r4, r0
	bl	_ZN18Iw2DSceneGraphCore5CNodeC2Ev(PLT)
	ldr	r0, .L61
	ldr	r2, .L61+4
.LPIC18:
	add	r0, pc, r0
	mvn	r3, #0
	add	r0, r0, #8
	mov	r1, #0
	str	r0, [r4]
	strb	r1, [r4, #124]
	str	r2, [r4, #120]
	strb	r3, [r4, #119]
	strb	r3, [r4, #118]
	strb	r3, [r4, #117]
	strb	r3, [r4, #116]
	mov	r0, r4
	ldmfd	sp!, {r4, pc}
.L62:
	.align	2
.L61:
	.word	.LANCHOR0-(.LPIC18+8)
	.word	-8355712
	.size	_ZN14Iw2DSceneGraph9CDrawableC2Ev, .-_ZN14Iw2DSceneGraph9CDrawableC2Ev
	.global	_ZN14Iw2DSceneGraph9CDrawableC1Ev
	.hidden	_ZN14Iw2DSceneGraph9CDrawableC1Ev
	.set	_ZN14Iw2DSceneGraph9CDrawableC1Ev,_ZN14Iw2DSceneGraph9CDrawableC2Ev
	.section	.text._ZN14Iw2DSceneGraph7CSpriteC2Ev,"ax",%progbits
	.align	2
	.global	_ZN14Iw2DSceneGraph7CSpriteC2Ev
	.hidden	_ZN14Iw2DSceneGraph7CSpriteC2Ev
	.type	_ZN14Iw2DSceneGraph7CSpriteC2Ev, %function
_ZN14Iw2DSceneGraph7CSpriteC2Ev:
	@ args = 0, pretend = 0, frame = 0
	@ frame_needed = 0, uses_anonymous_args = 0
	stmfd	sp!, {r4, lr}
	mov	r4, r0
	bl	_ZN18Iw2DSceneGraphCore5CNodeC2Ev(PLT)
	ldr	ip, .L64
	ldr	r1, .L64+4
.LPIC19:
	add	ip, pc, ip
	mvn	r3, #0
	mov	r2, #0
	mov	r0, #0
	add	ip, ip, #40
	str	r0, [r4, #136]	@ float
	str	ip, [r4]
	str	r1, [r4, #120]
	strb	r3, [r4, #119]
	strb	r3, [r4, #118]
	strb	r3, [r4, #117]
	strb	r3, [r4, #116]
	str	r3, [r4, #144]
	strb	r2, [r4, #124]
	str	r2, [r4, #128]
	str	r2, [r4, #132]
	mov	r0, r4
	ldmfd	sp!, {r4, pc}
.L65:
	.align	2
.L64:
	.word	.LANCHOR0-(.LPIC19+8)
	.word	-16776961
	.size	_ZN14Iw2DSceneGraph7CSpriteC2Ev, .-_ZN14Iw2DSceneGraph7CSpriteC2Ev
	.global	_ZN14Iw2DSceneGraph7CSpriteC1Ev
	.hidden	_ZN14Iw2DSceneGraph7CSpriteC1Ev
	.set	_ZN14Iw2DSceneGraph7CSpriteC1Ev,_ZN14Iw2DSceneGraph7CSpriteC2Ev
	.section	.text._ZN14Iw2DSceneGraph7CSprite8SetImageEP10CIw2DImage,"ax",%progbits
	.align	2
	.global	_ZN14Iw2DSceneGraph7CSprite8SetImageEP10CIw2DImage
	.hidden	_ZN14Iw2DSceneGraph7CSprite8SetImageEP10CIw2DImage
	.type	_ZN14Iw2DSceneGraph7CSprite8SetImageEP10CIw2DImage, %function
_ZN14Iw2DSceneGraph7CSprite8SetImageEP10CIw2DImage:
	@ args = 0, pretend = 0, frame = 0
	@ frame_needed = 0, uses_anonymous_args = 0
	stmfd	sp!, {r3, r4, r5, lr}
	mov	r5, r0
	mov	r0, r1
	str	r1, [r5, #128]
	ldr	r3, [r1]
	mov	r4, r1
	ldr	r3, [r3]
	blx	r3
	str	r0, [r5, #12]	@ float
	ldr	r3, [r4]
	mov	r0, r4
	ldr	r3, [r3, #4]
	blx	r3
	str	r0, [r5, #16]	@ float
	ldmfd	sp!, {r3, r4, r5, pc}
	.size	_ZN14Iw2DSceneGraph7CSprite8SetImageEP10CIw2DImage, .-_ZN14Iw2DSceneGraph7CSprite8SetImageEP10CIw2DImage
	.section	.text._ZN14Iw2DSceneGraph7CSprite8GetImageEv,"ax",%progbits
	.align	2
	.global	_ZN14Iw2DSceneGraph7CSprite8GetImageEv
	.hidden	_ZN14Iw2DSceneGraph7CSprite8GetImageEv
	.type	_ZN14Iw2DSceneGraph7CSprite8GetImageEv, %function
_ZN14Iw2DSceneGraph7CSprite8GetImageEv:
	@ args = 0, pretend = 0, frame = 0
	@ frame_needed = 0, uses_anonymous_args = 0
	@ link register save eliminated.
	ldr	r0, [r0, #128]
	bx	lr
	.size	_ZN14Iw2DSceneGraph7CSprite8GetImageEv, .-_ZN14Iw2DSceneGraph7CSprite8GetImageEv
	.section	.text._ZN14Iw2DSceneGraph7CSprite8SetAtlasEPNS_6CAtlasE,"ax",%progbits
	.align	2
	.global	_ZN14Iw2DSceneGraph7CSprite8SetAtlasEPNS_6CAtlasE
	.hidden	_ZN14Iw2DSceneGraph7CSprite8SetAtlasEPNS_6CAtlasE
	.type	_ZN14Iw2DSceneGraph7CSprite8SetAtlasEPNS_6CAtlasE, %function
_ZN14Iw2DSceneGraph7CSprite8SetAtlasEPNS_6CAtlasE:
	@ args = 0, pretend = 0, frame = 0
	@ frame_needed = 0, uses_anonymous_args = 0
	@ link register save eliminated.
	str	r1, [r0, #132]
	ldr	r3, [r1]
	mov	r2, #0
	str	r2, [r0, #136]	@ float
	str	r3, [r0, #128]
	bx	lr
	.size	_ZN14Iw2DSceneGraph7CSprite8SetAtlasEPNS_6CAtlasE, .-_ZN14Iw2DSceneGraph7CSprite8SetAtlasEPNS_6CAtlasE
	.section	.text._ZN14Iw2DSceneGraph7CSprite8GetAtlasEv,"ax",%progbits
	.align	2
	.global	_ZN14Iw2DSceneGraph7CSprite8GetAtlasEv
	.hidden	_ZN14Iw2DSceneGraph7CSprite8GetAtlasEv
	.type	_ZN14Iw2DSceneGraph7CSprite8GetAtlasEv, %function
_ZN14Iw2DSceneGraph7CSprite8GetAtlasEv:
	@ args = 0, pretend = 0, frame = 0
	@ frame_needed = 0, uses_anonymous_args = 0
	@ link register save eliminated.
	ldr	r0, [r0, #132]
	bx	lr
	.size	_ZN14Iw2DSceneGraph7CSprite8GetAtlasEv, .-_ZN14Iw2DSceneGraph7CSprite8GetAtlasEv
	.section	.text._ZN14Iw2DSceneGraph7CSprite15SetAnimDurationEf,"ax",%progbits
	.align	2
	.global	_ZN14Iw2DSceneGraph7CSprite15SetAnimDurationEf
	.hidden	_ZN14Iw2DSceneGraph7CSprite15SetAnimDurationEf
	.type	_ZN14Iw2DSceneGraph7CSprite15SetAnimDurationEf, %function
_ZN14Iw2DSceneGraph7CSprite15SetAnimDurationEf:
	@ args = 0, pretend = 0, frame = 0
	@ frame_needed = 0, uses_anonymous_args = 0
	@ link register save eliminated.
	mov	r3, #0
	str	r1, [r0, #140]	@ float
	str	r3, [r0, #136]	@ float
	bx	lr
	.size	_ZN14Iw2DSceneGraph7CSprite15SetAnimDurationEf, .-_ZN14Iw2DSceneGraph7CSprite15SetAnimDurationEf
	.section	.text._ZN14Iw2DSceneGraph7CSprite13SetAnimRepeatEi,"ax",%progbits
	.align	2
	.global	_ZN14Iw2DSceneGraph7CSprite13SetAnimRepeatEi
	.hidden	_ZN14Iw2DSceneGraph7CSprite13SetAnimRepeatEi
	.type	_ZN14Iw2DSceneGraph7CSprite13SetAnimRepeatEi, %function
_ZN14Iw2DSceneGraph7CSprite13SetAnimRepeatEi:
	@ args = 0, pretend = 0, frame = 0
	@ frame_needed = 0, uses_anonymous_args = 0
	@ link register save eliminated.
	str	r1, [r0, #144]
	bx	lr
	.size	_ZN14Iw2DSceneGraph7CSprite13SetAnimRepeatEi, .-_ZN14Iw2DSceneGraph7CSprite13SetAnimRepeatEi
	.section	.text._ZN14Iw2DSceneGraph6CLabelC2Ev,"ax",%progbits
	.align	2
	.global	_ZN14Iw2DSceneGraph6CLabelC2Ev
	.hidden	_ZN14Iw2DSceneGraph6CLabelC2Ev
	.type	_ZN14Iw2DSceneGraph6CLabelC2Ev, %function
_ZN14Iw2DSceneGraph6CLabelC2Ev:
	@ args = 0, pretend = 0, frame = 0
	@ frame_needed = 0, uses_anonymous_args = 0
	stmfd	sp!, {r4, lr}
	mov	r4, r0
	bl	_ZN18Iw2DSceneGraphCore5CNodeC2Ev(PLT)
	ldr	r1, .L76
	ldr	r0, .L76+4
.LPIC21:
	add	r1, pc, r1
	mvn	r2, #0
	mov	r3, #0
	add	r1, r1, #72
	str	r0, [r4, #120]
	str	r1, [r4]
	strb	r2, [r4, #119]
	strb	r2, [r4, #118]
	strb	r2, [r4, #117]
	strb	r2, [r4, #116]
	strb	r3, [r4, #124]
	str	r3, [r4, #140]
	str	r3, [r4, #144]
	str	r3, [r4, #148]
	mov	r0, #8
	bl	malloc(PLT)
	cmp	r0, #0
	beq	.L75
.L73:
	add	r2, r0, #8
	mov	r3, #0
	str	r0, [r4, #140]
	str	r0, [r4, #144]
	str	r2, [r4, #148]
	strb	r3, [r0]
	ldr	r2, [r4, #140]
	ldr	r1, [r4, #144]
	str	r3, [r4, #128]
	cmp	r2, r1
	beq	.L74
	ldrb	r3, [r1]	@ zero_extendqisi2
	rsb	r1, r2, r1
	strb	r3, [r2]
	ldr	r3, [r4, #144]
	rsb	r1, r1, r3
	str	r1, [r4, #144]
.L74:
	ldr	r2, .L76+8
	mov	r3, #0
	str	r2, [r4, #120]
	str	r3, [r4, #132]
	str	r3, [r4, #136]
	mov	r0, r4
	ldmfd	sp!, {r4, pc}
.L75:
	mov	r0, #8
	bl	_ZN4_STL14__malloc_allocILi0EE13_S_oom_mallocEj(PLT)
	b	.L73
.L77:
	.align	2
.L76:
	.word	.LANCHOR0-(.LPIC21+8)
	.word	-8355712
	.word	-16711936
	.size	_ZN14Iw2DSceneGraph6CLabelC2Ev, .-_ZN14Iw2DSceneGraph6CLabelC2Ev
	.global	_ZN14Iw2DSceneGraph6CLabelC1Ev
	.hidden	_ZN14Iw2DSceneGraph6CLabelC1Ev
	.set	_ZN14Iw2DSceneGraph6CLabelC1Ev,_ZN14Iw2DSceneGraph6CLabelC2Ev
	.section	.text._ZN14Iw2DSceneGraph9CDrawable6UpdateEff,"ax",%progbits
	.align	2
	.global	_ZN14Iw2DSceneGraph9CDrawable6UpdateEff
	.hidden	_ZN14Iw2DSceneGraph9CDrawable6UpdateEff
	.type	_ZN14Iw2DSceneGraph9CDrawable6UpdateEff, %function
_ZN14Iw2DSceneGraph9CDrawable6UpdateEff:
	@ args = 0, pretend = 0, frame = 0
	@ frame_needed = 0, uses_anonymous_args = 0
	@ link register save eliminated.
	b	_ZN18Iw2DSceneGraphCore5CNode6UpdateEff(PLT)
	.size	_ZN14Iw2DSceneGraph9CDrawable6UpdateEff, .-_ZN14Iw2DSceneGraph9CDrawable6UpdateEff
	.global	__aeabi_fadd
	.global	__aeabi_fcmpge
	.global	__aeabi_fsub
	.global	__aeabi_fcmple
	.section	.text._ZN14Iw2DSceneGraph7CSprite6UpdateEff,"ax",%progbits
	.align	2
	.global	_ZN14Iw2DSceneGraph7CSprite6UpdateEff
	.hidden	_ZN14Iw2DSceneGraph7CSprite6UpdateEff
	.type	_ZN14Iw2DSceneGraph7CSprite6UpdateEff, %function
_ZN14Iw2DSceneGraph7CSprite6UpdateEff:
	@ args = 0, pretend = 0, frame = 0
	@ frame_needed = 0, uses_anonymous_args = 0
	stmfd	sp!, {r3, r4, r5, r6, r7, r8, r9, lr}
	mov	r6, r0
	ldr	r3, [r0, #132]
	mov	r7, r1
	cmp	r3, #0
	mov	r9, r2
	beq	.L81
	ldr	r8, [r0, #144]
	cmp	r8, #0
	beq	.L81
	mov	r0, r1
	ldr	r1, [r6, #136]	@ float
	bl	__aeabi_fadd(PLT)
	ldr	r5, [r6, #140]	@ float
	mov	r1, r5
	str	r0, [r6, #136]	@ float
	mov	r4, r0
	bl	__aeabi_fcmpge(PLT)
	cmp	r0, #0
	beq	.L81
	cmp	r8, #0
	subgt	r8, r8, #1
	strgt	r8, [r6, #144]
.L85:
	mov	r0, r4
	mov	r1, r5
	bl	__aeabi_fsub(PLT)
	mov	r4, r0
	mov	r1, r4
	mov	r0, r5
	bl	__aeabi_fcmple(PLT)
	cmp	r0, #0
	bne	.L85
	str	r4, [r6, #136]	@ float
.L81:
	mov	r0, r6
	mov	r1, r7
	mov	r2, r9
	ldmfd	sp!, {r3, r4, r5, r6, r7, r8, r9, lr}
	b	_ZN18Iw2DSceneGraphCore5CNode6UpdateEff(PLT)
	.size	_ZN14Iw2DSceneGraph7CSprite6UpdateEff, .-_ZN14Iw2DSceneGraph7CSprite6UpdateEff
	.section	.text._ZN14Iw2DSceneGraph9CDrawable6RenderEv,"ax",%progbits
	.align	2
	.global	_ZN14Iw2DSceneGraph9CDrawable6RenderEv
	.hidden	_ZN14Iw2DSceneGraph9CDrawable6RenderEv
	.type	_ZN14Iw2DSceneGraph9CDrawable6RenderEv, %function
_ZN14Iw2DSceneGraph9CDrawable6RenderEv:
	@ args = 0, pretend = 0, frame = 8
	@ frame_needed = 0, uses_anonymous_args = 0
	stmfd	sp!, {r4, r5, lr}
	mov	r4, r0
	ldrb	r3, [r0, #124]	@ zero_extendqisi2
	ldr	r5, .L95
	sub	sp, sp, #12
	cmp	r3, #0
.LPIC23:
	add	r5, pc, r5
	beq	.L91
	ldr	r0, [r0, #120]
	bl	_Z13Iw2DSetColourj(PLT)
	ldr	r3, .L95+4
	ldr	r1, [r4, #16]	@ float
	ldr	r2, [r4, #12]	@ float
	str	r1, [sp, #4]	@ float
	str	r2, [sp]	@ float
	ldr	r1, [r5, r3]
	add	r0, sp, #8
	ldmdb	r0, {r2, r3}
	ldmia	r1, {r0, r1}
	bl	_Z12Iw2DDrawRect8CIwFVec2S_(PLT)
.L91:
	mov	r0, r4
	add	sp, sp, #12
	@ sp needed
	ldmfd	sp!, {r4, r5, lr}
	b	_ZN18Iw2DSceneGraphCore5CNode6RenderEv(PLT)
.L96:
	.align	2
.L95:
	.word	_GLOBAL_OFFSET_TABLE_-(.LPIC23+8)
	.word	_ZN8CIwFVec26g_ZeroE(GOT)
	.size	_ZN14Iw2DSceneGraph9CDrawable6RenderEv, .-_ZN14Iw2DSceneGraph9CDrawable6RenderEv
	.global	__aeabi_fcmpeq
	.section	.text._ZN14Iw2DSceneGraph6CLabel6RenderEv,"ax",%progbits
	.align	2
	.global	_ZN14Iw2DSceneGraph6CLabel6RenderEv
	.hidden	_ZN14Iw2DSceneGraph6CLabel6RenderEv
	.type	_ZN14Iw2DSceneGraph6CLabel6RenderEv, %function
_ZN14Iw2DSceneGraph6CLabel6RenderEv:
	@ args = 0, pretend = 0, frame = 8
	@ frame_needed = 0, uses_anonymous_args = 0
	stmfd	sp!, {r4, r5, r6, lr}
	mov	r4, r0
	ldrb	r3, [r0, #44]	@ zero_extendqisi2
	ldr	r5, .L115
	sub	sp, sp, #24
	cmp	r3, #0
.LPIC24:
	add	r5, pc, r5
	beq	.L97
	ldr	r0, [r0, #128]
	cmp	r0, #0
	beq	.L100
	ldr	r2, [r4, #144]
	ldr	r3, [r4, #140]
	cmp	r2, r3
	beq	.L100
	bl	_Z11Iw2DSetFontP9CIw2DFont(PLT)
	ldr	r0, [r4, #12]	@ float
	mov	r1, #0
	bl	__aeabi_fcmpeq(PLT)
	cmp	r0, #0
	bne	.L112
.L107:
	ldr	r0, [r4, #16]	@ float
	mov	r1, #0
	bl	__aeabi_fcmpeq(PLT)
	cmp	r0, #0
	bne	.L113
.L103:
	ldr	r3, [r4]
	mov	r0, r4
	ldr	r3, [r3, #16]
	blx	r3
	ldr	r3, .L115+4
	ldr	r1, [r4, #16]	@ float
	ldr	r2, [r4, #12]	@ float
	str	r1, [sp, #20]	@ float
	str	r2, [sp, #16]	@ float
	ldr	r3, [r5, r3]
	ldr	lr, [r4, #132]
	ldr	ip, [r4, #136]
	ldr	r6, [sp, #20]
	ldmia	r3, {r1, r2}
	ldr	r0, [r4, #140]
	ldr	r3, [sp, #16]
	str	r6, [sp]
	str	lr, [sp, #4]
	str	ip, [sp, #8]
	bl	_Z14Iw2DDrawStringPKc8CIwFVec2S1_14CIw2DFontAlignS2_(PLT)
.L100:
	ldrb	r3, [r4, #124]	@ zero_extendqisi2
	cmp	r3, #0
	bne	.L114
	mov	r0, r4
	add	sp, sp, #24
	@ sp needed
	ldmfd	sp!, {r4, r5, r6, lr}
	b	_ZN18Iw2DSceneGraphCore5CNode6RenderEv(PLT)
.L114:
	ldr	r0, [r4, #120]
	bl	_Z13Iw2DSetColourj(PLT)
	ldr	r3, .L115+4
	ldr	r1, [r4, #16]	@ float
	ldr	r2, [r4, #12]	@ float
	str	r1, [sp, #20]	@ float
	str	r2, [sp, #16]	@ float
	ldr	r1, [r5, r3]
	add	r0, sp, #24
	ldmdb	r0, {r2, r3}
	ldmia	r1, {r0, r1}
	bl	_Z12Iw2DDrawRect8CIwFVec2S_(PLT)
	mov	r0, r4
	add	sp, sp, #24
	@ sp needed
	ldmfd	sp!, {r4, r5, r6, lr}
	b	_ZN18Iw2DSceneGraphCore5CNode6RenderEv(PLT)
.L97:
	add	sp, sp, #24
	@ sp needed
	ldmfd	sp!, {r4, r5, r6, pc}
.L113:
	ldr	r3, [r4, #128]
	mov	r0, r3
	ldr	r3, [r3]
	ldr	r3, [r3]
	blx	r3
	bl	__aeabi_i2f(PLT)
	str	r0, [r4, #16]	@ float
	b	.L103
.L112:
	ldr	r0, [r4, #140]
	bl	_Z18Iw2DGetStringWidthPKc(PLT)
	bl	__aeabi_i2f(PLT)
	str	r0, [r4, #12]	@ float
	b	.L107
.L116:
	.align	2
.L115:
	.word	_GLOBAL_OFFSET_TABLE_-(.LPIC24+8)
	.word	_ZN8CIwFVec26g_ZeroE(GOT)
	.size	_ZN14Iw2DSceneGraph6CLabel6RenderEv, .-_ZN14Iw2DSceneGraph6CLabel6RenderEv
	.global	__aeabi_fdiv
	.section	.text._ZN14Iw2DSceneGraph7CSprite6RenderEv,"ax",%progbits
	.align	2
	.global	_ZN14Iw2DSceneGraph7CSprite6RenderEv
	.hidden	_ZN14Iw2DSceneGraph7CSprite6RenderEv
	.type	_ZN14Iw2DSceneGraph7CSprite6RenderEv, %function
_ZN14Iw2DSceneGraph7CSprite6RenderEv:
	@ args = 0, pretend = 0, frame = 24
	@ frame_needed = 0, uses_anonymous_args = 0
	stmfd	sp!, {r4, r5, r6, r7, r8, r9, r10, lr}
	mov	r4, r0
	ldrb	r3, [r0, #44]	@ zero_extendqisi2
	ldr	r5, .L129
	sub	sp, sp, #40
	cmp	r3, #0
.LPIC25:
	add	r5, pc, r5
	bne	.L128
	add	sp, sp, #40
	@ sp needed
	ldmfd	sp!, {r4, r5, r6, r7, r8, r9, r10, pc}
.L128:
	ldr	r3, [r0]
	ldr	r3, [r3, #16]
	blx	r3
	ldr	r3, [r4, #132]
	cmp	r3, #0
	beq	.L119
	ldr	r7, [r3, #4]
	ldr	r0, [r3, #8]
	rsb	r0, r7, r0
	mov	r0, r0, asr #3
	bl	__aeabi_i2f(PLT)
	ldr	r1, [r4, #136]	@ float
	bl	__aeabi_fmul(PLT)
	ldr	r1, [r4, #140]	@ float
	bl	__aeabi_fdiv(PLT)
	bl	__aeabi_f2iz(PLT)
	mov	r8, r0, asl #3
	add	r6, r7, r8
	ldrsh	r0, [r6, #4]
	bl	__aeabi_i2f(PLT)
	str	r0, [r4, #12]	@ float
	ldrsh	r0, [r6, #6]
	bl	__aeabi_i2f(PLT)
	mov	r3, #0
	str	r3, [sp, #16]	@ float
	str	r3, [sp, #20]	@ float
	ldr	r9, [r4, #128]
	str	r0, [r4, #16]	@ float
	ldrsh	r0, [r6, #2]
	bl	__aeabi_i2f(PLT)
	mov	r10, r0
	ldrsh	r0, [r7, r8]
	bl	__aeabi_i2f(PLT)
	str	r10, [sp, #28]	@ float
	str	r0, [sp, #24]	@ float
	ldrsh	r0, [r6, #6]
	bl	__aeabi_i2f(PLT)
	mov	r7, r0
	ldrsh	r0, [r6, #4]
	bl	__aeabi_i2f(PLT)
	ldr	r3, [sp, #28]
	add	r2, sp, #40
	str	r3, [sp]
	str	r7, [sp, #36]	@ float
	ldr	r3, [sp, #24]
	str	r0, [sp, #32]	@ float
	ldmdb	r2, {r0, r1}
	add	r2, sp, #16
	stmib	sp, {r0, r1}
	mov	r0, r9
	ldmia	r2, {r1, r2}
	bl	_Z19Iw2DDrawImageRegionP10CIw2DImage8CIwFVec2S1_S1_(PLT)
.L120:
	ldrb	r3, [r4, #124]	@ zero_extendqisi2
	cmp	r3, #0
	beq	.L121
	ldr	r0, [r4, #120]
	bl	_Z13Iw2DSetColourj(PLT)
	ldr	r3, .L129+4
	ldr	r1, [r4, #16]	@ float
	ldr	r2, [r4, #12]	@ float
	str	r1, [sp, #36]	@ float
	str	r2, [sp, #32]	@ float
	ldr	r1, [r5, r3]
	add	r0, sp, #40
	ldmdb	r0, {r2, r3}
	ldmia	r1, {r0, r1}
	bl	_Z12Iw2DDrawRect8CIwFVec2S_(PLT)
.L121:
	mov	r0, r4
	add	sp, sp, #40
	@ sp needed
	ldmfd	sp!, {r4, r5, r6, r7, r8, r9, r10, lr}
	b	_ZN18Iw2DSceneGraphCore5CNode6RenderEv(PLT)
.L119:
	ldr	r0, [r4, #128]
	cmp	r0, #0
	beq	.L120
	ldr	r3, .L129+4
	ldr	r3, [r5, r3]
	ldmia	r3, {r1, r2}
	bl	_Z13Iw2DDrawImageP10CIw2DImage8CIwFVec2(PLT)
	b	.L120
.L130:
	.align	2
.L129:
	.word	_GLOBAL_OFFSET_TABLE_-(.LPIC25+8)
	.word	_ZN8CIwFVec26g_ZeroE(GOT)
	.size	_ZN14Iw2DSceneGraph7CSprite6RenderEv, .-_ZN14Iw2DSceneGraph7CSprite6RenderEv
	.hidden	_ZTSN14Iw2DSceneGraph9CDrawableE
	.global	_ZTSN14Iw2DSceneGraph9CDrawableE
	.hidden	_ZTIN14Iw2DSceneGraph9CDrawableE
	.global	_ZTIN14Iw2DSceneGraph9CDrawableE
	.hidden	_ZTSN14Iw2DSceneGraph7CSpriteE
	.global	_ZTSN14Iw2DSceneGraph7CSpriteE
	.hidden	_ZTIN14Iw2DSceneGraph7CSpriteE
	.global	_ZTIN14Iw2DSceneGraph7CSpriteE
	.hidden	_ZTSN14Iw2DSceneGraph6CLabelE
	.global	_ZTSN14Iw2DSceneGraph6CLabelE
	.hidden	_ZTIN14Iw2DSceneGraph6CLabelE
	.global	_ZTIN14Iw2DSceneGraph6CLabelE
	.hidden	_ZTVN14Iw2DSceneGraph9CDrawableE
	.global	_ZTVN14Iw2DSceneGraph9CDrawableE
	.hidden	_ZTVN14Iw2DSceneGraph7CSpriteE
	.global	_ZTVN14Iw2DSceneGraph7CSpriteE
	.hidden	_ZTVN14Iw2DSceneGraph6CLabelE
	.global	_ZTVN14Iw2DSceneGraph6CLabelE
	.section	.rodata
	.align	2
	.type	_ZTSN14Iw2DSceneGraph9CDrawableE, %object
	.size	_ZTSN14Iw2DSceneGraph9CDrawableE, 29
_ZTSN14Iw2DSceneGraph9CDrawableE:
	.ascii	"N14Iw2DSceneGraph9CDrawableE\000"
	.space	3
	.type	_ZTSN14Iw2DSceneGraph7CSpriteE, %object
	.size	_ZTSN14Iw2DSceneGraph7CSpriteE, 27
_ZTSN14Iw2DSceneGraph7CSpriteE:
	.ascii	"N14Iw2DSceneGraph7CSpriteE\000"
	.space	1
	.type	_ZTSN14Iw2DSceneGraph6CLabelE, %object
	.size	_ZTSN14Iw2DSceneGraph6CLabelE, 26
_ZTSN14Iw2DSceneGraph6CLabelE:
	.ascii	"N14Iw2DSceneGraph6CLabelE\000"
	.section	.data.rel.ro,"aw",%progbits
	.align	3
	.set	.LANCHOR0,. + 0
	.type	_ZTVN14Iw2DSceneGraph9CDrawableE, %object
	.size	_ZTVN14Iw2DSceneGraph9CDrawableE, 28
_ZTVN14Iw2DSceneGraph9CDrawableE:
	.word	0
	.word	_ZTIN14Iw2DSceneGraph9CDrawableE
	.word	_ZN14Iw2DSceneGraph9CDrawableD1Ev
	.word	_ZN14Iw2DSceneGraph9CDrawableD0Ev
	.word	_ZN14Iw2DSceneGraph9CDrawable6UpdateEff
	.word	_ZN14Iw2DSceneGraph9CDrawable6RenderEv
	.word	_ZN14Iw2DSceneGraph9CDrawable9PreRenderEv
	.space	4
	.type	_ZTVN14Iw2DSceneGraph7CSpriteE, %object
	.size	_ZTVN14Iw2DSceneGraph7CSpriteE, 28
_ZTVN14Iw2DSceneGraph7CSpriteE:
	.word	0
	.word	_ZTIN14Iw2DSceneGraph7CSpriteE
	.word	_ZN14Iw2DSceneGraph7CSpriteD1Ev
	.word	_ZN14Iw2DSceneGraph7CSpriteD0Ev
	.word	_ZN14Iw2DSceneGraph7CSprite6UpdateEff
	.word	_ZN14Iw2DSceneGraph7CSprite6RenderEv
	.word	_ZN14Iw2DSceneGraph9CDrawable9PreRenderEv
	.space	4
	.type	_ZTVN14Iw2DSceneGraph6CLabelE, %object
	.size	_ZTVN14Iw2DSceneGraph6CLabelE, 28
_ZTVN14Iw2DSceneGraph6CLabelE:
	.word	0
	.word	_ZTIN14Iw2DSceneGraph6CLabelE
	.word	_ZN14Iw2DSceneGraph6CLabelD1Ev
	.word	_ZN14Iw2DSceneGraph6CLabelD0Ev
	.word	_ZN14Iw2DSceneGraph9CDrawable6UpdateEff
	.word	_ZN14Iw2DSceneGraph6CLabel6RenderEv
	.word	_ZN14Iw2DSceneGraph9CDrawable9PreRenderEv
	.type	_ZTIN14Iw2DSceneGraph9CDrawableE, %object
	.size	_ZTIN14Iw2DSceneGraph9CDrawableE, 12
_ZTIN14Iw2DSceneGraph9CDrawableE:
	.word	_ZTVN10__cxxabiv120__si_class_type_infoE+8
	.word	_ZTSN14Iw2DSceneGraph9CDrawableE
	.word	_ZTIN18Iw2DSceneGraphCore5CNodeE
	.type	_ZTIN14Iw2DSceneGraph7CSpriteE, %object
	.size	_ZTIN14Iw2DSceneGraph7CSpriteE, 12
_ZTIN14Iw2DSceneGraph7CSpriteE:
	.word	_ZTVN10__cxxabiv120__si_class_type_infoE+8
	.word	_ZTSN14Iw2DSceneGraph7CSpriteE
	.word	_ZTIN14Iw2DSceneGraph9CDrawableE
	.type	_ZTIN14Iw2DSceneGraph6CLabelE, %object
	.size	_ZTIN14Iw2DSceneGraph6CLabelE, 12
_ZTIN14Iw2DSceneGraph6CLabelE:
	.word	_ZTVN10__cxxabiv120__si_class_type_infoE+8
	.word	_ZTSN14Iw2DSceneGraph6CLabelE
	.word	_ZTIN14Iw2DSceneGraph9CDrawableE
	.ident	"GCC: (GNU Tools for ARM Embedded Processors) 4.8.3 20140228 (release) [ARM/embedded-4_8-branch revision 208322]"
