	.arch armv6
	.fpu softvfp
	.eabi_attribute 20, 1
	.eabi_attribute 21, 1
	.eabi_attribute 23, 3
	.eabi_attribute 24, 1
	.eabi_attribute 25, 1
	.eabi_attribute 26, 2
	.eabi_attribute 30, 2
	.eabi_attribute 34, 1
	.eabi_attribute 18, 2
	.file	"IwSoundGroup.cpp"
	.section	.text._ZN10CIwManaged9ParseOpenEP16CIwTextParserITX,"axG",%progbits,_ZN10CIwManaged9ParseOpenEP16CIwTextParserITX,comdat
	.align	2
	.weak	_ZN10CIwManaged9ParseOpenEP16CIwTextParserITX
	.hidden	_ZN10CIwManaged9ParseOpenEP16CIwTextParserITX
	.type	_ZN10CIwManaged9ParseOpenEP16CIwTextParserITX, %function
_ZN10CIwManaged9ParseOpenEP16CIwTextParserITX:
	@ args = 0, pretend = 0, frame = 0
	@ frame_needed = 0, uses_anonymous_args = 0
	@ link register save eliminated.
	bx	lr
	.size	_ZN10CIwManaged9ParseOpenEP16CIwTextParserITX, .-_ZN10CIwManaged9ParseOpenEP16CIwTextParserITX
	.section	.text._ZN10CIwManaged11HandleEventEP8CIwEvent,"axG",%progbits,_ZN10CIwManaged11HandleEventEP8CIwEvent,comdat
	.align	2
	.weak	_ZN10CIwManaged11HandleEventEP8CIwEvent
	.hidden	_ZN10CIwManaged11HandleEventEP8CIwEvent
	.type	_ZN10CIwManaged11HandleEventEP8CIwEvent, %function
_ZN10CIwManaged11HandleEventEP8CIwEvent:
	@ args = 0, pretend = 0, frame = 0
	@ frame_needed = 0, uses_anonymous_args = 0
	@ link register save eliminated.
	mov	r0, #0
	bx	lr
	.size	_ZN10CIwManaged11HandleEventEP8CIwEvent, .-_ZN10CIwManaged11HandleEventEP8CIwEvent
	.section	.text._ZN10CIwManaged11DebugRenderEv,"axG",%progbits,_ZN10CIwManaged11DebugRenderEv,comdat
	.align	2
	.weak	_ZN10CIwManaged11DebugRenderEv
	.hidden	_ZN10CIwManaged11DebugRenderEv
	.type	_ZN10CIwManaged11DebugRenderEv, %function
_ZN10CIwManaged11DebugRenderEv:
	@ args = 0, pretend = 0, frame = 0
	@ frame_needed = 0, uses_anonymous_args = 0
	@ link register save eliminated.
	bx	lr
	.size	_ZN10CIwManaged11DebugRenderEv, .-_ZN10CIwManaged11DebugRenderEv
	.section	.text._ZN11CIwResource10ApplyScaleEi,"axG",%progbits,_ZN11CIwResource10ApplyScaleEi,comdat
	.align	2
	.weak	_ZN11CIwResource10ApplyScaleEi
	.hidden	_ZN11CIwResource10ApplyScaleEi
	.type	_ZN11CIwResource10ApplyScaleEi, %function
_ZN11CIwResource10ApplyScaleEi:
	@ args = 0, pretend = 0, frame = 0
	@ frame_needed = 0, uses_anonymous_args = 0
	@ link register save eliminated.
	bx	lr
	.size	_ZN11CIwResource10ApplyScaleEi, .-_ZN11CIwResource10ApplyScaleEi
	.section	.text._ZN11CIwResource10ApplyScaleEf,"axG",%progbits,_ZN11CIwResource10ApplyScaleEf,comdat
	.align	2
	.weak	_ZN11CIwResource10ApplyScaleEf
	.hidden	_ZN11CIwResource10ApplyScaleEf
	.type	_ZN11CIwResource10ApplyScaleEf, %function
_ZN11CIwResource10ApplyScaleEf:
	@ args = 0, pretend = 0, frame = 0
	@ frame_needed = 0, uses_anonymous_args = 0
	@ link register save eliminated.
	bx	lr
	.size	_ZN11CIwResource10ApplyScaleEf, .-_ZN11CIwResource10ApplyScaleEf
	.section	.text._ZNK13CIwSoundGroup12GetClassNameEv,"ax",%progbits
	.align	2
	.global	_ZNK13CIwSoundGroup12GetClassNameEv
	.hidden	_ZNK13CIwSoundGroup12GetClassNameEv
	.type	_ZNK13CIwSoundGroup12GetClassNameEv, %function
_ZNK13CIwSoundGroup12GetClassNameEv:
	@ args = 0, pretend = 0, frame = 0
	@ frame_needed = 0, uses_anonymous_args = 0
	@ link register save eliminated.
	ldr	r0, .L7
.LPIC0:
	add	r0, pc, r0
	bx	lr
.L8:
	.align	2
.L7:
	.word	.LC0-(.LPIC0+8)
	.size	_ZNK13CIwSoundGroup12GetClassNameEv, .-_ZNK13CIwSoundGroup12GetClassNameEv
	.section	.text._ZN13CIwSoundGroup14ParseAttributeEP16CIwTextParserITXPKc,"ax",%progbits
	.align	2
	.global	_ZN13CIwSoundGroup14ParseAttributeEP16CIwTextParserITXPKc
	.hidden	_ZN13CIwSoundGroup14ParseAttributeEP16CIwTextParserITXPKc
	.type	_ZN13CIwSoundGroup14ParseAttributeEP16CIwTextParserITXPKc, %function
_ZN13CIwSoundGroup14ParseAttributeEP16CIwTextParserITXPKc:
	@ args = 0, pretend = 0, frame = 0
	@ frame_needed = 0, uses_anonymous_args = 0
	@ link register save eliminated.
	mov	r0, #0
	bx	lr
	.size	_ZN13CIwSoundGroup14ParseAttributeEP16CIwTextParserITXPKc, .-_ZN13CIwSoundGroup14ParseAttributeEP16CIwTextParserITXPKc
	.section	.text._ZN13CIwSoundGroup10ParseCloseEP16CIwTextParserITX,"ax",%progbits
	.align	2
	.global	_ZN13CIwSoundGroup10ParseCloseEP16CIwTextParserITX
	.hidden	_ZN13CIwSoundGroup10ParseCloseEP16CIwTextParserITX
	.type	_ZN13CIwSoundGroup10ParseCloseEP16CIwTextParserITX, %function
_ZN13CIwSoundGroup10ParseCloseEP16CIwTextParserITX:
	@ args = 0, pretend = 0, frame = 0
	@ frame_needed = 0, uses_anonymous_args = 0
	@ link register save eliminated.
	bx	lr
	.size	_ZN13CIwSoundGroup10ParseCloseEP16CIwTextParserITX, .-_ZN13CIwSoundGroup10ParseCloseEP16CIwTextParserITX
	.section	.text._ZN13CIwSoundGroupD2Ev,"axG",%progbits,_ZN13CIwSoundGroupD5Ev,comdat
	.align	2
	.weak	_ZN13CIwSoundGroupD2Ev
	.hidden	_ZN13CIwSoundGroupD2Ev
	.type	_ZN13CIwSoundGroupD2Ev, %function
_ZN13CIwSoundGroupD2Ev:
	@ args = 0, pretend = 0, frame = 0
	@ frame_needed = 0, uses_anonymous_args = 0
	ldr	r3, .L12
	ldr	r2, .L12+4
.LPIC2:
	add	r3, pc, r3
	stmfd	sp!, {r4, lr}
	mov	r4, r0
	ldr	r3, [r3, r2]
	add	r3, r3, #8
	str	r3, [r0]
	bl	_ZN10CIwManagedD2Ev(PLT)
	mov	r0, r4
	ldmfd	sp!, {r4, pc}
.L13:
	.align	2
.L12:
	.word	_GLOBAL_OFFSET_TABLE_-(.LPIC2+8)
	.word	_ZTV18CIwManagedRefCount(GOT)
	.size	_ZN13CIwSoundGroupD2Ev, .-_ZN13CIwSoundGroupD2Ev
	.weak	_ZN13CIwSoundGroupD1Ev
	.hidden	_ZN13CIwSoundGroupD1Ev
	.set	_ZN13CIwSoundGroupD1Ev,_ZN13CIwSoundGroupD2Ev
	.section	.text._ZN13CIwSoundGroupD0Ev,"axG",%progbits,_ZN13CIwSoundGroupD0Ev,comdat
	.align	2
	.weak	_ZN13CIwSoundGroupD0Ev
	.hidden	_ZN13CIwSoundGroupD0Ev
	.type	_ZN13CIwSoundGroupD0Ev, %function
_ZN13CIwSoundGroupD0Ev:
	@ args = 0, pretend = 0, frame = 0
	@ frame_needed = 0, uses_anonymous_args = 0
	ldr	r3, .L15
	ldr	r2, .L15+4
.LPIC4:
	add	r3, pc, r3
	stmfd	sp!, {r4, lr}
	mov	r4, r0
	ldr	r3, [r3, r2]
	add	r3, r3, #8
	str	r3, [r0]
	bl	_ZN10CIwManagedD2Ev(PLT)
	mov	r0, r4
	bl	_ZdlPv(PLT)
	mov	r0, r4
	ldmfd	sp!, {r4, pc}
.L16:
	.align	2
.L15:
	.word	_GLOBAL_OFFSET_TABLE_-(.LPIC4+8)
	.word	_ZTV18CIwManagedRefCount(GOT)
	.size	_ZN13CIwSoundGroupD0Ev, .-_ZN13CIwSoundGroupD0Ev
	.section	.text._ZN13CIwSoundGroup9SerialiseEv,"ax",%progbits
	.align	2
	.global	_ZN13CIwSoundGroup9SerialiseEv
	.hidden	_ZN13CIwSoundGroup9SerialiseEv
	.type	_ZN13CIwSoundGroup9SerialiseEv, %function
_ZN13CIwSoundGroup9SerialiseEv:
	@ args = 0, pretend = 0, frame = 0
	@ frame_needed = 0, uses_anonymous_args = 0
	stmfd	sp!, {r4, lr}
	mov	r4, r0
	bl	_ZN10CIwManaged9SerialiseEv(PLT)
	add	r0, r4, #16
	mov	r1, #1
	mov	r2, #15
	mov	r3, #2
	bl	_Z16IwSerialiseInt16Rsiii(PLT)
	add	r0, r4, #18
	mov	r1, #1
	mov	r2, #15
	mov	r3, #2
	bl	_Z16IwSerialiseInt16Rsiii(PLT)
	add	r0, r4, #20
	mov	r1, #1
	mov	r2, #15
	mov	r3, #2
	bl	_Z16IwSerialiseInt16Rsiii(PLT)
	add	r0, r4, #22
	mov	r1, #1
	mov	r2, #16
	mov	r3, #2
	bl	_Z17IwSerialiseUInt16Rtiii(PLT)
	add	r0, r4, #26
	mov	r1, #1
	mov	r2, #16
	mov	r3, #2
	ldmfd	sp!, {r4, lr}
	b	_Z17IwSerialiseUInt16Rtiii(PLT)
	.size	_ZN13CIwSoundGroup9SerialiseEv, .-_ZN13CIwSoundGroup9SerialiseEv
	.section	.text._Z21_CIwSoundGroupFactoryv,"ax",%progbits
	.align	2
	.global	_Z21_CIwSoundGroupFactoryv
	.hidden	_Z21_CIwSoundGroupFactoryv
	.type	_Z21_CIwSoundGroupFactoryv, %function
_Z21_CIwSoundGroupFactoryv:
	@ args = 0, pretend = 0, frame = 0
	@ frame_needed = 0, uses_anonymous_args = 0
	ldr	r3, .L19
	stmfd	sp!, {r4, lr}
	mov	r0, #32
.LPIC5:
	add	r3, pc, r3
	bl	_Znwj(PLT)
	mov	r4, r0
	bl	_ZN10CIwManagedC2Ev(PLT)
	ldr	r0, .L19+4
	mov	r3, #0
.LPIC6:
	add	r0, pc, r0
	mov	r2, #4096
	mov	r1, #4
	add	r0, r0, #8
	str	r0, [r4]
	strh	r1, [r4, #22]	@ movhi
	strh	r3, [r4, #12]	@ movhi
	strh	r3, [r4, #14]	@ movhi
	strh	r3, [r4, #18]	@ movhi
	strh	r3, [r4, #24]	@ movhi
	strh	r3, [r4, #26]	@ movhi
	strh	r2, [r4, #16]	@ movhi
	strh	r2, [r4, #20]	@ movhi
	mov	r0, r4
	ldmfd	sp!, {r4, pc}
.L20:
	.align	2
.L19:
	.word	_GLOBAL_OFFSET_TABLE_-(.LPIC5+8)
	.word	.LANCHOR0-(.LPIC6+8)
	.size	_Z21_CIwSoundGroupFactoryv, .-_Z21_CIwSoundGroupFactoryv
	.section	.text._Z21_GetCIwSoundGroupSizev,"ax",%progbits
	.align	2
	.global	_Z21_GetCIwSoundGroupSizev
	.hidden	_Z21_GetCIwSoundGroupSizev
	.type	_Z21_GetCIwSoundGroupSizev, %function
_Z21_GetCIwSoundGroupSizev:
	@ args = 0, pretend = 0, frame = 0
	@ frame_needed = 0, uses_anonymous_args = 0
	@ link register save eliminated.
	mov	r0, #32
	bx	lr
	.size	_Z21_GetCIwSoundGroupSizev, .-_Z21_GetCIwSoundGroupSizev
	.section	.text._ZN13CIwSoundGroupC2Ev,"ax",%progbits
	.align	2
	.global	_ZN13CIwSoundGroupC2Ev
	.hidden	_ZN13CIwSoundGroupC2Ev
	.type	_ZN13CIwSoundGroupC2Ev, %function
_ZN13CIwSoundGroupC2Ev:
	@ args = 0, pretend = 0, frame = 0
	@ frame_needed = 0, uses_anonymous_args = 0
	ldr	r3, .L23
	stmfd	sp!, {r4, lr}
.LPIC7:
	add	r3, pc, r3
	mov	r4, r0
	bl	_ZN10CIwManagedC2Ev(PLT)
	ldr	r0, .L23+4
	mov	r3, #0
.LPIC8:
	add	r0, pc, r0
	mov	r2, #4096
	mov	r1, #4
	add	r0, r0, #8
	str	r0, [r4]
	strh	r1, [r4, #22]	@ movhi
	strh	r3, [r4, #12]	@ movhi
	strh	r3, [r4, #14]	@ movhi
	strh	r3, [r4, #18]	@ movhi
	strh	r3, [r4, #24]	@ movhi
	strh	r3, [r4, #26]	@ movhi
	strh	r2, [r4, #16]	@ movhi
	strh	r2, [r4, #20]	@ movhi
	mov	r0, r4
	ldmfd	sp!, {r4, pc}
.L24:
	.align	2
.L23:
	.word	_GLOBAL_OFFSET_TABLE_-(.LPIC7+8)
	.word	.LANCHOR0-(.LPIC8+8)
	.size	_ZN13CIwSoundGroupC2Ev, .-_ZN13CIwSoundGroupC2Ev
	.global	_ZN13CIwSoundGroupC1Ev
	.hidden	_ZN13CIwSoundGroupC1Ev
	.set	_ZN13CIwSoundGroupC1Ev,_ZN13CIwSoundGroupC2Ev
	.section	.text._ZN13CIwSoundGroup14KillOldestInstEb,"ax",%progbits
	.align	2
	.global	_ZN13CIwSoundGroup14KillOldestInstEb
	.hidden	_ZN13CIwSoundGroup14KillOldestInstEb
	.type	_ZN13CIwSoundGroup14KillOldestInstEb, %function
_ZN13CIwSoundGroup14KillOldestInstEb:
	@ args = 0, pretend = 0, frame = 0
	@ frame_needed = 0, uses_anonymous_args = 0
	ldr	r3, .L33
	ldr	r2, .L33+4
.LPIC17:
	add	r3, pc, r3
	stmfd	sp!, {r4, lr}
	mov	r4, r0
	ldr	r3, [r3, r2]
	ldr	r3, [r3]
	ldr	ip, [r3, #20]
	subs	r1, ip, r1
	beq	.L29
	ldr	r3, [r3, #12]
	mov	lr, #0
	add	ip, r3, r1, asl #2
	mov	r0, lr
	b	.L28
.L27:
	cmp	r3, ip
	beq	.L26
.L28:
	ldr	r2, [r3], #4
	ldr	r1, [r2]
	ldr	r1, [r1, #36]
	cmp	r1, r4
	bne	.L27
	ldrh	r1, [r2, #14]
	cmp	r1, lr
	movhi	lr, r1
	movhi	r0, r2
	cmp	r3, ip
	bne	.L28
.L26:
	bl	_ZN12CIwSoundInst4StopEv(PLT)
	ldrh	r3, [r4, #24]
	sub	r3, r3, #1
	strh	r3, [r4, #24]	@ movhi
	ldmfd	sp!, {r4, pc}
.L29:
	mov	r0, r1
	b	.L26
.L34:
	.align	2
.L33:
	.word	_GLOBAL_OFFSET_TABLE_-(.LPIC17+8)
	.word	g_IwSoundManager(GOT)
	.size	_ZN13CIwSoundGroup14KillOldestInstEb, .-_ZN13CIwSoundGroup14KillOldestInstEb
	.section	.text._ZN13CIwSoundGroup4StopEv,"ax",%progbits
	.align	2
	.global	_ZN13CIwSoundGroup4StopEv
	.hidden	_ZN13CIwSoundGroup4StopEv
	.type	_ZN13CIwSoundGroup4StopEv, %function
_ZN13CIwSoundGroup4StopEv:
	@ args = 0, pretend = 0, frame = 0
	@ frame_needed = 0, uses_anonymous_args = 0
	ldr	r3, .L45
	ldr	r2, .L45+4
.LPIC18:
	add	r3, pc, r3
	stmfd	sp!, {r4, r5, r6, lr}
	mov	r6, r0
	ldr	r5, [r3, r2]
	ldr	r2, [r5]
	ldr	r1, [r2, #20]
	cmp	r1, #0
	ldmeqfd	sp!, {r4, r5, r6, pc}
	mov	r4, #0
	b	.L40
.L37:
	add	r4, r4, #1
	cmp	r4, r1
	bcs	.L44
.L40:
	ldr	r3, [r2, #12]
	ldr	r0, [r3, r4, asl #2]
	ldr	r3, [r0]
	cmp	r3, #0
	beq	.L37
	ldr	r3, [r3, #36]
	cmp	r3, r6
	bne	.L37
	bl	_ZN12CIwSoundInst4StopEv(PLT)
	ldr	r2, [r5]
	add	r4, r4, #1
	ldr	r1, [r2, #20]
	cmp	r4, r1
	bcc	.L40
.L44:
	ldmfd	sp!, {r4, r5, r6, pc}
.L46:
	.align	2
.L45:
	.word	_GLOBAL_OFFSET_TABLE_-(.LPIC18+8)
	.word	g_IwSoundManager(GOT)
	.size	_ZN13CIwSoundGroup4StopEv, .-_ZN13CIwSoundGroup4StopEv
	.section	.text._ZN13CIwSoundGroup5PauseEv,"ax",%progbits
	.align	2
	.global	_ZN13CIwSoundGroup5PauseEv
	.hidden	_ZN13CIwSoundGroup5PauseEv
	.type	_ZN13CIwSoundGroup5PauseEv, %function
_ZN13CIwSoundGroup5PauseEv:
	@ args = 0, pretend = 0, frame = 0
	@ frame_needed = 0, uses_anonymous_args = 0
	ldr	r3, .L53
	ldr	r2, .L53+4
.LPIC19:
	add	r3, pc, r3
	stmfd	sp!, {r4, r5, r6, lr}
	mov	r6, r0
	ldr	r5, [r3, r2]
	ldr	r1, [r5]
	ldr	ip, [r1, #20]
	cmp	ip, #0
	ldmeqfd	sp!, {r4, r5, r6, pc}
	mov	r4, #0
.L51:
	ldr	r3, [r1, #12]
	ldr	r0, [r3, r4, asl #2]
	add	r4, r4, #1
	ldr	r2, [r0]
	ldr	r2, [r2, #36]
	cmp	r2, r6
	beq	.L52
.L49:
	cmp	r4, ip
	bcc	.L51
	ldmfd	sp!, {r4, r5, r6, pc}
.L52:
	bl	_ZN12CIwSoundInst5PauseEv(PLT)
	ldr	r1, [r5]
	ldr	ip, [r1, #20]
	b	.L49
.L54:
	.align	2
.L53:
	.word	_GLOBAL_OFFSET_TABLE_-(.LPIC19+8)
	.word	g_IwSoundManager(GOT)
	.size	_ZN13CIwSoundGroup5PauseEv, .-_ZN13CIwSoundGroup5PauseEv
	.section	.text._ZN13CIwSoundGroup6ResumeEv,"ax",%progbits
	.align	2
	.global	_ZN13CIwSoundGroup6ResumeEv
	.hidden	_ZN13CIwSoundGroup6ResumeEv
	.type	_ZN13CIwSoundGroup6ResumeEv, %function
_ZN13CIwSoundGroup6ResumeEv:
	@ args = 0, pretend = 0, frame = 0
	@ frame_needed = 0, uses_anonymous_args = 0
	ldr	r3, .L61
	ldr	r2, .L61+4
.LPIC20:
	add	r3, pc, r3
	stmfd	sp!, {r4, r5, r6, lr}
	mov	r6, r0
	ldr	r5, [r3, r2]
	ldr	r1, [r5]
	ldr	ip, [r1, #20]
	cmp	ip, #0
	ldmeqfd	sp!, {r4, r5, r6, pc}
	mov	r4, #0
.L59:
	ldr	r3, [r1, #12]
	ldr	r0, [r3, r4, asl #2]
	add	r4, r4, #1
	ldr	r2, [r0]
	ldr	r2, [r2, #36]
	cmp	r2, r6
	beq	.L60
.L57:
	cmp	r4, ip
	bcc	.L59
	ldmfd	sp!, {r4, r5, r6, pc}
.L60:
	bl	_ZN12CIwSoundInst6ResumeEv(PLT)
	ldr	r1, [r5]
	ldr	ip, [r1, #20]
	b	.L57
.L62:
	.align	2
.L61:
	.word	_GLOBAL_OFFSET_TABLE_-(.LPIC20+8)
	.word	g_IwSoundManager(GOT)
	.size	_ZN13CIwSoundGroup6ResumeEv, .-_ZN13CIwSoundGroup6ResumeEv
	.hidden	_ZTS13CIwSoundGroup
	.global	_ZTS13CIwSoundGroup
	.hidden	_ZTI13CIwSoundGroup
	.global	_ZTI13CIwSoundGroup
	.hidden	_ZTV13CIwSoundGroup
	.global	_ZTV13CIwSoundGroup
	.section	.rodata
	.align	2
	.type	_ZTS13CIwSoundGroup, %object
	.size	_ZTS13CIwSoundGroup, 16
_ZTS13CIwSoundGroup:
	.ascii	"13CIwSoundGroup\000"
	.section	.data.rel.ro,"aw",%progbits
	.align	3
	.set	.LANCHOR0,. + 0
	.type	_ZTV13CIwSoundGroup, %object
	.size	_ZTV13CIwSoundGroup, 72
_ZTV13CIwSoundGroup:
	.word	0
	.word	_ZTI13CIwSoundGroup
	.word	_ZN13CIwSoundGroupD1Ev
	.word	_ZN13CIwSoundGroupD0Ev
	.word	_ZN10CIwManaged9ParseOpenEP16CIwTextParserITX
	.word	_ZN13CIwSoundGroup10ParseCloseEP16CIwTextParserITX
	.word	_ZN13CIwSoundGroup14ParseAttributeEP16CIwTextParserITXPKc
	.word	_ZN13CIwSoundGroup9SerialiseEv
	.word	_ZN10CIwManaged7ResolveEv
	.word	_ZN10CIwManaged15ParseCloseChildEP16CIwTextParserITXPS_
	.word	_ZN10CIwManaged11HandleEventEP8CIwEvent
	.word	_ZN10CIwManaged7SetNameEPKc
	.word	_ZNK13CIwSoundGroup12GetClassNameEv
	.word	_ZN10CIwManaged11DebugRenderEv
	.word	_ZN18CIwManagedRefCount17DebugAddMenuItemsEP7CIwMenu
	.word	_ZN18CIwManagedRefCount8_ReplaceEP10CIwManaged
	.word	_ZN11CIwResource10ApplyScaleEi
	.word	_ZN11CIwResource10ApplyScaleEf
	.type	_ZTI13CIwSoundGroup, %object
	.size	_ZTI13CIwSoundGroup, 12
_ZTI13CIwSoundGroup:
	.word	_ZTVN10__cxxabiv120__si_class_type_infoE+8
	.word	_ZTS13CIwSoundGroup
	.word	_ZTI11CIwResource
	.section	.rodata.str1.4,"aMS",%progbits,1
	.align	2
.LC0:
	.ascii	"CIwSoundGroup\000"
	.ident	"GCC: (GNU Tools for ARM Embedded Processors) 4.8.3 20140228 (release) [ARM/embedded-4_8-branch revision 208322]"
