((dp0
S'arm_dbg_args'
p1
S'-via:"d:\\Git\\Year2\\fga2.gt2\\SprayAndPray\\build_sprayandpray_vc12\\SprayAndPray_vc12_arm_debug.via" -qemu'
p2
sS'game-icf'
p3
S''
p4
sS'dist'
p5
NsS'csproj'
p6
g4
sS'module_path_append'
p7
NsS'global_path'
p8
S'd:\\git\\year2\\fga2.gt2'
p9
sS'system_path'
p10
S'c:\\program files\\marmalade\\7.4\\s3e\\makefile_builder'
p11
sS'android_x86_dbg_args'
p12
S'../../tools/DeployTool/DeployTool.exe --dir "d:\\Git\\Year2\\fga2.gt2\\SprayAndPray\\build_sprayandpray_vc12"'
p13
sS'no-emit'
p14
NsS'arm-float-abi'
p15
g4
sS'arm_rel_rtsm_args'
p16
S'-via:"d:\\Git\\Year2\\fga2.gt2\\SprayAndPray\\build_sprayandpray_vc12\\SprayAndPray_vc12_arm_release.via" -qemu'
p17
sS'amd64'
p18
NsS'line-width'
p19
I80
sS'gcc_dbg_args'
p20
S'-via:"d:\\Git\\Year2\\fga2.gt2\\SprayAndPray\\build_sprayandpray_vc12\\SprayAndPray_vc12_gcc_debug.via" -qemu'
p21
sS'android-x86'
p22
NsS'x86_dbg_exe'
p23
S'c:/program files/marmalade/7.4/s3e\\win32\\s3e_simulator_debug.exe'
p24
sS'disable-runtime-checks'
p25
NsS'release'
p26
NsS'no-make'
p27
NsS'xcode-x86-build-settings'
p28
g4
sS'optimise-size'
p29
NsS'output-name-debug'
p30
g4
sS'arm-fpu'
p31
g4
sS'proj_name'
p32
S'SprayAndPray_vc12'
p33
sS'rvct-version'
p34
S'none'
p35
sS'compiler'
p36
g4
sS'execute'
p37
NsS'compile-static'
p38
NsS'msvc-project'
p39
I01
sS'buildenv'
p40
S'VC12'
p41
sS'quick'
p42
NsS'module_path'
p43
NsS'mkf_default'
p44
S's3e-default.mkf'
p45
sS'use-release-std-libs'
p46
NsS'using_perforce'
p47
I00
sS'tizen-x86'
p48
NsS'mips-s3e'
p49
NsS's3e-api-lib-name'
p50
S's3e_api_iwgl'
p51
sS'ios-no-pic'
p52
NsS'shared-arm-lib'
p53
NsS'arm-cpu'
p54
g4
sS'compile-thumb'
p55
NsS'no-ide'
p56
NsS'msvc-version'
p57
S'6.0'
p58
sS'arm'
p59
NsS'builddir'
p60
g4
sS'compile-debug-as-release'
p61
I0
sS'arm-arch'
p62
g4
sS'brief'
p63
NsS'dll'
p64
NsS'buildenv-toolset'
p65
g4
sS'version'
p66
NsS'ccache'
p67
I0
sS'offline'
p68
NsS'ios-version'
p69
g4
sS'hub_data'
p70
g4
sS'fake_vc_call'
p71
I01
sS'jobs'
p72
I0
sS'linkflags'
p73
NsS'debug'
p74
NsS'xcode-build-order'
p75
g4
sS'gcc_rel_rtsm_args'
p76
S'-via:"d:\\Git\\Year2\\fga2.gt2\\SprayAndPray\\build_sprayandpray_vc12\\SprayAndPray_vc12_gcc_release.via" -qemu'
p77
sS'done_defaults'
p78
I1
sS'path'
p79
NsS's3e-data-dir'
p80
S'd:/Git/Year2/fga2.gt2/SprayAndPray\\data'
p81
sS'enable-exceptions'
p82
NsS'osx-dll'
p83
NsS'extension'
p84
g4
sS'no-vc6'
p85
NsS'non-interactive'
p86
NsS'win32-console'
p87
NsS'dist-format'
p88
g4
sS's3e-force-arch'
p89
NsS'dump_defines'
p90
NsS'use-shared-std-libs'
p91
NsS'gcc-version'
p92
g4
sS'x86_dbg_args'
p93
S'-via:"d:\\Git\\Year2\\fga2.gt2\\SprayAndPray\\build_sprayandpray_vc12\\SprayAndPray_vc12_debug.via"'
p94
sS'tizen_x86_dbg_args'
p95
g13
sS'arm-debugger'
p96
g4
sS'use_temp_extension'
p97
NsS'verbose'
p98
I0
sS'log'
p99
NsS'no-strip'
p100
NsS'rebuild'
p101
NsS'win32-simulator-dll'
p102
NsS'strict'
p103
NsS'mips_dbg_args'
p104
g13
sS'enable-global-path'
p105
NsS'cflags'
p106
NsS'dist-dir'
p107
g4
sS'xcode-arm-build-settings'
p108
g4
sS'jflags'
p109
NsS'csprojSDKRefs'
p110
g4
sS'tizen_x86_rel_exe'
p111
S'c:\\program files\\marmalade\\7.4\\s3e\\makefile_builder\\tool_launcher.exe'
p112
sS'test-assets'
p113
g4
sS'distcc'
p114
NsS'external-compiler'
p115
NsS'no-distcc'
p116
NsS'preinclude'
p117
NsS'using_sdk'
p118
I01
sS'nologo'
p119
NsS'warn-level'
p120
I2
sS'mips_dbg_exe'
p121
g112
sS'mkb_in'
p122
S'd:/Git/Year2/fga2.gt2/SprayAndPray/SprayAndPray.mkb'
p123
sS'tizen_x86_dbg_exe'
p124
g112
sS'arm_dbg_exe'
p125
S'c:/program files/marmalade/7.4/s3e\\bin\\armdebug.exe'
p126
sS'csprojDLLRef'
p127
NsS'tizen_x86_rel_args'
p128
g13
sS'android_x86_dbg_exe'
p129
g112
sS'test-config'
p130
g4
sS'list-targets'
p131
NsS'arm_rel_exe'
p132
g112
sS'arm_rel_args'
p133
g13
sS'makedeps'
p134
NsS'android_x86_rel_exe'
p135
g112
sS'default-buildenv'
p136
S'vc12'
p137
sS'x86_rel_exe'
p138
g24
sS'preprocess-java'
p139
NsS'mips_rel_args'
p140
g13
sS'defines'
p141
NsS'lib'
p142
NsS'global_argv'
p143
(lp144
S'C:\\Program Files\\Marmalade\\7.4\\s3e\\makefile_builder\\mkb.py'
p145
aS'd:/Git/Year2/fga2.gt2/SprayAndPray/SprayAndPray.mkb'
p146
aS'--buildenv=VC12'
p147
aS'--fake-vc-call'
p148
aS'--default-buildenv=vc12'
p149
aS'--msvc-project'
p150
asS'make'
p151
NsS'optimise-speed'
p152
NsS'internal'
p153
NsS'enable-stdinc'
p154
NsS'deploy-only'
p155
NsS'x86'
p156
NsS'deploy'
p157
g4
sS'x86_run_exe'
p158
S'c:/program files/marmalade/7.4/s3e\\win32\\s3e_console.exe'
p159
sS'x86_rel_args'
p160
S'-via:"d:\\Git\\Year2\\fga2.gt2\\SprayAndPray\\build_sprayandpray_vc12\\SprayAndPray_vc12_release.via"'
p161
sS'gcc_rel_args'
p162
g13
sS'mips'
p163
NsS'xcode-build-settings'
p164
g4
sS'incredibuild'
p165
NsS'strict-compile'
p166
NsS'use-auto-subdirs'
p167
NsS'mips_rel_exe'
p168
g112
sS'android_x86_rel_args'
p169
g13
sS'app-icf'
p170
g4
sS'deployargs'
p171
NsS'iosnativedebug'
p172
NsS'use_prebuilt'
p173
NsS'mkf_in'
p174
(lp175
S'c:\\program files\\marmalade\\7.4\\s3e\\s3e-default.mkf'
p176
aS'c:\\program files\\marmalade\\7.4\\modules\\iwutil\\iwutil.mkf'
p177
aS'c:\\program files\\marmalade\\7.4\\modules\\third_party\\libjpeg\\libjpeg.mkf'
p178
aS'c:\\program files\\marmalade\\7.4\\modules\\third_party\\libpng\\libpng.mkf'
p179
aS'c:\\program files\\marmalade\\7.4\\modules\\third_party\\zlib\\zlib.mkf'
p180
aS'c:\\program files\\marmalade\\7.4\\modules\\iw2dscenegraphcore\\iw2dscenegraphcore.mkf'
p181
aS'c:\\program files\\marmalade\\7.4\\modules\\iw2dscenegraph\\iw2dscenegraph.mkf'
p182
aS'c:\\program files\\marmalade\\7.4\\modules\\iw2d\\iw2d.mkf'
p183
aS'c:\\program files\\marmalade\\7.4\\modules\\iwgx\\iwgx.mkf'
p184
aS'c:\\program files\\marmalade\\7.4\\modules\\iwgl\\iwgl.mkf'
p185
aS'c:\\program files\\marmalade\\7.4\\modules\\iwgeom\\iwgeom.mkf'
p186
aS'c:\\program files\\marmalade\\7.4\\modules\\iwresmanager\\iwresmanager.mkf'
p187
aS'c:\\program files\\marmalade\\7.4\\extensions\\pvrtextool\\pvrtextool.mkf'
p188
aS'c:\\program files\\marmalade\\7.4\\modules\\iwgxfont\\iwgxfont.mkf'
p189
aS'c:\\program files\\marmalade\\7.4\\modules\\third_party\\tiniconv\\tiniconv.mkf'
p190
aS'c:\\program files\\marmalade\\7.4\\modules\\iwnui\\iwnui.mkf'
p191
aS'c:\\program files\\marmalade\\7.4\\extensions\\s3enui\\s3enui.mkf'
p192
aS'c:\\program files\\marmalade\\7.4\\extensions\\s3enui\\s3enui_iwui.mkf'
p193
aS'c:\\program files\\marmalade\\7.4\\modules\\iwui\\iwui.mkf'
p194
aS'c:\\program files\\marmalade\\7.4\\modules\\iwtween\\iwtween.mkf'
p195
aS'd:\\git\\year2\\fga2.gt2\\sprayandpray\\soundengine.mkf'
p196
asS'strict-mkb'
p197
NsS'executeargs'
p198
NsS'clean'
p199
NsS'no-asm'
p200
NsS'output-name'
p201
g4
sS'no-modules'
p202
NsS'find_define'
p203
g4
s(dp204
S'c:\\program files\\marmalade\\7.4\\s3e\\makefile_builder\\templates\\xcode4_DeployTool.xcscheme'
p205
F1418620376.0
sS'c:\\program files\\marmalade\\7.4\\s3e\\makefile_builder\\docs\\deprecated.defines.txt'
p206
F1418620376.0
sS'c:\\program files\\marmalade\\7.4\\s3e\\makefile_builder\\templates\\wp81_csproj_user.pyc'
p207
F1418621498.0
sS'c:\\program files\\marmalade\\7.4\\s3e\\makefile_builder\\mkb_parser.pyc'
p208
F1418621496.0
sS'c:\\program files\\marmalade\\7.4\\s3e\\makefile_builder\\templates\\Info.plist'
p209
F1418620376.0
sS'c:\\program files\\marmalade\\7.4\\s3e\\makefile_builder\\plugins\\null.pyc'
p210
F1418621496.0
sS'c:\\program files\\marmalade\\7.4\\s3e\\makefile_builder\\plugins\\java.pyc'
p211
F1418621496.0
sS'c:\\program files\\marmalade\\7.4\\s3e\\makefile_builder\\templates\\win32_vcxproj_filters.pyc'
p212
F1418621498.0
sS'c:\\program files\\marmalade\\7.4\\s3e\\makefile_builder\\templates\\win32_dsw.pyc'
p213
F1418621498.0
sS'c:\\program files\\marmalade\\7.4\\s3e\\makefile_builder\\plugins\\MakeEmitter.pyc'
p214
F1418621496.0
sS'c:\\program files\\marmalade\\7.4\\s3e\\makefile_builder\\templates\\linker_script'
p215
F1418620376.0
sS'c:\\program files\\marmalade\\7.4\\s3e\\makefile_builder\\templates\\win32_sln.pyc'
p216
F1418621498.0
sS'c:\\program files\\marmalade\\7.4\\s3e\\makefile_builder\\templates'
p217
F1421496020.302326
sS'c:\\program files\\marmalade\\7.4\\s3e\\makefile_builder\\mkb.py'
p218
F1418620376.0
sS'c:\\program files\\marmalade\\7.4\\s3e\\makefile_builder\\templates\\rvct_linker_script'
p219
F1418620376.0
sS'c:\\program files\\marmalade\\7.4\\s3e\\makefile_builder\\templates\\qmake_user.py'
p220
F1418620376.0
sS'c:\\program files\\marmalade\\7.4\\s3e\\makefile_builder\\templates\\template.opt'
p221
F1418620376.0
sS'c:\\program files\\marmalade\\7.4\\s3e\\makefile_builder\\docs\\mkb.defines.txt'
p222
F1418620376.0
sS'c:\\program files\\marmalade\\7.4\\s3e\\makefile_builder\\plugins\\wp8_wp8.pyc'
p223
F1418621496.0
sS'c:\\program files\\marmalade\\7.4\\s3e\\makefile_builder\\plugins\\s3e_wp81.pyc'
p224
F1418621496.0
sS'c:\\program files\\marmalade\\7.4\\s3e\\makefile_builder\\templates\\wp8_ext_csproj.pyc'
p225
F1418621498.0
sS'c:\\program files\\marmalade\\7.4\\s3e\\makefile_builder\\docs\\options.txt'
p226
F1418620376.0
sS'c:\\program files\\marmalade\\7.4\\s3e\\makefile_builder\\templates\\ws81_csproj_user.pyc'
p227
F1418621498.0
sS'c:\\program files\\marmalade\\7.4\\s3e\\makefile_builder\\templates\\ws8_sln.pyc'
p228
F1418621498.0
sS'c:\\program files\\marmalade\\7.4\\s3e\\makefile_builder\\templates\\ws8_vcxproj.pyc'
p229
F1418621498.0
sS'c:\\program files\\marmalade\\7.4\\s3e\\makefile_builder\\mkb_util.pyc'
p230
F1418621496.0
sS'c:\\program files\\marmalade\\7.4\\s3e\\makefile_builder\\plugins\\wp81_wp81.pyc'
p231
F1418621496.0
sS'c:\\program files\\marmalade\\7.4\\s3e\\makefile_builder\\plugins\\s3e_scons.pyc'
p232
F1418621496.0
sS'c:\\program files\\marmalade\\7.4\\s3e\\makefile_builder\\plugins\\s3e_ws81.pyc'
p233
F1418621496.0
sS'c:\\program files\\marmalade\\7.4\\s3e\\makefile_builder\\plugins\\deploy.pyc'
p234
F1418621496.0
sS'c:\\program files\\marmalade\\7.4\\s3e\\makefile_builder\\templates\\wp81_ext_sln.pyc'
p235
F1418621498.0
sS'c:\\program files\\marmalade\\7.4\\s3e\\makefile_builder\\templates\\wp81_ext_csproj.pyc'
p236
F1418621498.0
sS'c:\\program files\\marmalade\\7.4\\s3e\\makefile_builder\\templates\\win32_vcxproj.pyc'
p237
F1418621498.0
sS'c:\\program files\\marmalade\\7.4\\s3e\\makefile_builder\\templates\\ws8_csproj.pyc'
p238
F1418621498.0
sS'c:\\program files\\marmalade\\7.4\\s3e\\makefile_builder\\plugins\\s3e_win8.pyc'
p239
F1418621496.0
sS'c:\\program files\\marmalade\\7.4\\s3e\\makefile_builder\\templates\\qmake.py'
p240
F1418620376.0
sS'c:\\program files\\marmalade\\7.4\\s3e\\makefile_builder\\plugins\\VisualStudioEmitter.pyc'
p241
F1418621496.0
sS'c:\\program files\\marmalade\\7.4\\s3e\\makefile_builder\\templates\\ws8_csproj_user.pyc'
p242
F1418621498.0
sS'c:\\program files\\marmalade\\7.4\\s3e\\makefile_builder\\templates\\win8_vcxproj.pyc'
p243
F1418621498.0
sS'c:\\program files\\marmalade\\7.4\\s3e\\makefile_builder\\plugins\\ws81_ws81.pyc'
p244
F1418621496.0
sS'c:\\program files\\marmalade\\7.4\\s3e\\makefile_builder\\plugins\\linux_scons.pyc'
p245
F1418621496.0
sS'c:\\program files\\marmalade\\7.4\\s3e\\makefile_builder\\templates\\xcode.py'
p246
F1418620376.0
sS'c:\\program files\\marmalade\\7.4\\s3e\\makefile_builder\\plugins\\s3e_xcode.py'
p247
F1418620376.0
sS'c:\\program files\\marmalade\\7.4\\s3e\\makefile_builder\\templates\\wp8_csproj.pyc'
p248
F1418621498.0
sS'c:\\program files\\marmalade\\7.4\\s3e\\makefile_builder\\plugins\\osx_xcode.pyc'
p249
F1418621496.0
sS'c:\\program files\\marmalade\\7.4\\s3e\\makefile_builder\\plugins\\xcode4_schememanagement.py'
p250
F1418620376.0
sS'c:\\program files\\marmalade\\7.4\\s3e\\makefile_builder\\templates\\gdb_start.txt'
p251
F1418620376.0
sS'c:\\program files\\marmalade\\7.4\\s3e\\makefile_builder\\templates\\wp81_csproj.pyc'
p252
F1418621498.0
sS'c:\\program files\\marmalade\\7.4\\s3e\\makefile_builder\\templates\\wp81_vcxproj.pyc'
p253
F1418621498.0
sS'c:\\program files\\marmalade\\7.4\\s3e\\makefile_builder\\templates\\xcode4_arm.xcscheme'
p254
F1418620376.0
sS'c:\\program files\\marmalade\\7.4\\s3e\\makefile_builder\\templates\\win8_csproj.pyc'
p255
F1418621498.0
sS'c:\\program files\\marmalade\\7.4\\s3e\\makefile_builder\\tool_launcher.exe'
p256
F1418620632.0
sS'c:\\program files\\marmalade\\7.4\\s3e\\makefile_builder\\mkb_launcher.exe'
p257
F1418620632.0
sS'c:\\program files\\marmalade\\7.4\\s3e\\makefile_builder\\templates\\template.suo'
p258
F1418620376.0
sS'c:\\program files\\marmalade\\7.4\\s3e\\makefile_builder\\docs\\deprecated.options.txt'
p259
F1418620376.0
sS'c:\\program files\\marmalade\\7.4\\s3e\\makefile_builder\\plugins\\s3e_vc6.pyc'
p260
F1418621496.0
sS'c:\\program files\\marmalade\\7.4\\s3e\\makefile_builder\\templates\\win8_csproj_user.pyc'
p261
F1418621498.0
sS'c:\\program files\\marmalade\\7.4\\s3e\\makefile_builder\\templates\\xcode4.xcscheme'
p262
F1418620376.0
sS'c:\\program files\\marmalade\\7.4\\s3e\\makefile_builder\\docs\\parse_options.pyc'
p263
F1418621498.0
sS'c:\\program files\\marmalade\\7.4\\s3e\\makefile_builder\\templates\\vc8_user.pyc'
p264
F1418621498.0
sS'c:\\program files\\marmalade\\7.4\\s3e\\makefile_builder\\plugins\\osx_scons.pyc'
p265
F1418621496.0
sS'c:\\program files\\marmalade\\7.4\\s3e\\makefile_builder\\templates\\ws81_ext_csproj.pyc'
p266
F1418621498.0
sS'c:\\program files\\marmalade\\7.4\\s3e\\makefile_builder\\templates\\win8_ext_csproj.pyc'
p267
F1418621498.0
sS'c:\\program files\\marmalade\\7.4\\s3e\\makefile_builder\\docs'
p268
F1421496020.3123336
sS'c:\\program files\\marmalade\\7.4\\s3e\\makefile_builder\\templates\\win8_sln.pyc'
p269
F1418621498.0
sS'c:\\program files\\marmalade\\7.4\\s3e\\makefile_builder\\plugins\\ws8_ws8.pyc'
p270
F1418621496.0
sS'c:\\program files\\marmalade\\7.4\\s3e\\makefile_builder\\templates\\ws81_vcxproj.pyc'
p271
F1418621498.0
sS'c:\\program files\\marmalade\\7.4\\s3e\\makefile_builder\\templates\\vc10_user.pyc'
p272
F1418621498.0
sS'c:\\program files\\marmalade\\7.4\\s3e\\makefile_builder\\templates\\ws8_ext_sln.pyc'
p273
F1418621498.0
sS'c:\\program files\\marmalade\\7.4\\s3e\\makefile_builder\\templates\\win32_dsp.pyc'
p274
F1418621498.0
sS'c:\\program files\\marmalade\\7.4\\s3e\\makefile_builder\\templates\\MainWindow.xib'
p275
F1418620376.0
sS'c:\\program files\\marmalade\\7.4\\s3e\\makefile_builder\\plugins\\vc7_utils.pyc'
p276
F1418621496.0
sS'c:\\program files\\marmalade\\7.4\\s3e\\makefile_builder\\templates\\ws81_sln.pyc'
p277
F1418621498.0
sS'c:\\program files\\marmalade\\7.4\\s3e\\makefile_builder\\plugins\\s3e_qmake.py'
p278
F1418620376.0
sS'c:\\program files\\marmalade\\7.4\\s3e\\makefile_builder\\templates\\ws8_ext_csproj.pyc'
p279
F1418621498.0
sS'c:\\program files\\marmalade\\7.4\\s3e\\makefile_builder\\mkb_globals.pyc'
p280
F1418621496.0
sS'c:\\program files\\marmalade\\7.4\\s3e\\makefile_builder\\plugins\\vc6_utils.pyc'
p281
F1418621496.0
sS'c:\\program files\\marmalade\\7.4\\s3e\\makefile_builder\\templates\\vc6_opt.pyc'
p282
F1418621498.0
sS'c:\\program files\\marmalade\\7.4\\s3e\\makefile_builder\\templates\\mips_linker_script'
p283
F1418620376.0
sS'c:\\program files\\marmalade\\7.4\\s3e\\makefile_builder\\plugins\\s3e_ws8.pyc'
p284
F1418621496.0
sS'c:\\program files\\marmalade\\7.4\\s3e\\makefile_builder\\plugins\\win32_vc6.pyc'
p285
F1418621496.0
sS'c:\\program files\\marmalade\\7.4\\s3e\\makefile_builder\\plugins\\s3e_make.pyc'
p286
F1418621496.0
sS'c:\\program files\\marmalade\\7.4\\s3e\\makefile_builder\\mkb_option.pyc'
p287
F1418621496.0
sS'c:\\program files\\marmalade\\7.4\\s3e\\makefile_builder\\templates\\vc7_suo.pyc'
p288
F1418621498.0
sS'c:\\program files\\marmalade\\7.4\\s3e\\makefile_builder\\plugins\\Emitter.pyc'
p289
F1418621496.0
sS'c:\\program files\\marmalade\\7.4\\s3e\\makefile_builder\\plugins\\Win8Emitter.pyc'
p290
F1418621496.0
sS'c:\\program files\\marmalade\\7.4\\s3e\\makefile_builder\\plugins\\s3e_wp8.pyc'
p291
F1418621496.0
sS'c:\\program files\\marmalade\\7.4\\s3e\\makefile_builder\\templates\\xcode_pbxuser.py'
p292
F1418620376.0
sS'c:\\program files\\marmalade\\7.4\\s3e\\makefile_builder\\docs\\deployment_options.txt'
p293
F1418620376.0
sS'c:\\program files\\marmalade\\7.4\\s3e\\makefile_builder\\templates\\make.py'
p294
F1418620376.0
sS'c:\\program files\\marmalade\\7.4\\s3e\\makefile_builder\\templates\\wp81_sln.pyc'
p295
F1418621498.0
sS'c:\\program files\\marmalade\\7.4\\s3e\\makefile_builder\\mkb_main.pyc'
p296
F1418621496.0
sS'c:\\program files\\marmalade\\7.4\\s3e\\makefile_builder\\templates\\wp8_sln.pyc'
p297
F1418621498.0
sS'c:\\program files\\marmalade\\7.4\\s3e\\makefile_builder\\plugins\\iphone.pyc'
p298
F1418621496.0
sS'c:\\program files\\marmalade\\7.4\\s3e\\makefile_builder\\templates\\wp8_csproj_user.pyc'
p299
F1418621498.0
sS'c:\\program files\\marmalade\\7.4\\s3e\\makefile_builder\\plugins\\s3e_web.pyc'
p300
F1418621496.0
sS'c:\\program files\\marmalade\\7.4\\s3e\\makefile_builder\\mkb_upstream.pyc'
p301
F1418621496.0
sS'c:\\program files\\marmalade\\7.4\\s3e\\makefile_builder\\plugins\\SConsEmitter.pyc'
p302
F1418621496.0
sS'c:\\program files\\marmalade\\7.4\\s3e\\makefile_builder\\templates\\scons.pyc'
p303
F1418621498.0
sS'c:\\program files\\marmalade\\7.4\\s3e\\makefile_builder\\templates\\ws81_csproj.pyc'
p304
F1418621498.0
sS'c:\\program files\\marmalade\\7.4\\s3e\\makefile_builder\\templates\\win32_vcproj.pyc'
p305
F1418621498.0
sS'c:\\program files\\marmalade\\7.4\\s3e\\makefile_builder\\plugins\\win8_utils.pyc'
p306
F1418621496.0
sS'c:\\program files\\marmalade\\7.4\\s3e\\makefile_builder\\templates\\wp8_vcxproj.pyc'
p307
F1418621498.0
sS'c:\\program files\\marmalade\\7.4\\s3e\\makefile_builder\\templates\\ws81_ext_sln.pyc'
p308
F1418621498.0
sS'c:\\program files\\marmalade\\7.4\\s3e\\makefile_builder\\deployment.pyc'
p309
F1418621496.0
sS'c:\\program files\\marmalade\\7.4\\s3e\\makefile_builder\\plugins'
p310
F1421496020.2923195
sS'c:\\program files\\marmalade\\7.4\\s3e\\makefile_builder\\plugins\\XcodeEmitter.py'
p311
F1418620376.0
sS'c:\\program files\\marmalade\\7.4\\s3e\\makefile_builder\\plugins\\S3EEmitter.pyc'
p312
F1418621496.0
sccopy_reg
_reconstructor
p313
(cmkb_main
MkbFile
p314
c__builtin__
object
p315
Ntp316
Rp317
(dp318
g5
(lp319
sS'target_name'
p320
S'SprayAndPray'
p321
sS'current_file'
p322
g123
sS'package_path'
p323
(lp324
sS'post_build'
p325
(lp326
(lp327
S'c:/program files/marmalade/7.4/s3e/tools'
p328
aS'"C:\\Program Files\\Marmalade\\7.4\\s3e\\python\\python.exe" .\\process_map.py "$(TargetPath)"'
p329
aa(S'c:\\program files\\marmalade\\7.4\\s3e\\bin'
p330
S'"s3e_plink" -l "$(TargetPath)" '
p331
g156
tp332
asS'librarys'
p333
(lp334
g313
(cmkb_main
Library
p335
g315
Ntp336
Rp337
(dp338
S'name'
p339
S'vc6_compat.lib'
p340
sS'expand_name'
p341
I00
sS'include_spec_rvct_objs'
p342
(lp343
sS'include_all_objs'
p344
I00
sS'share_arm'
p345
I00
sS'arch'
p346
S'x86'
p347
sS'nodebug'
p348
I00
sg36
Nsbag313
(g335
g315
Ntp349
Rp350
(dp351
g339
S'iwutil'
p352
sg341
I01
sg342
(lp353
sg344
Nsg345
Nsg346
Nsg348
I00
sg36
Nsbag313
(g335
g315
Ntp354
Rp355
(dp356
g339
S'jpeg'
p357
sg341
I01
sg342
g353
sg344
Nsg345
Nsg346
Nsg348
I00
sg36
Nsbag313
(g335
g315
Ntp358
Rp359
(dp360
g339
S'z'
p361
sg341
I01
sg342
g353
sg344
Nsg345
Nsg346
Nsg348
I00
sg36
Nsbag313
(g335
g315
Ntp362
Rp363
(dp364
g339
S'png'
p365
sg341
I01
sg342
g353
sg344
Nsg345
Nsg346
Nsg348
I00
sg36
Nsbag313
(g335
g315
Ntp366
Rp367
(dp368
g339
S'iw2d'
p369
sg341
I01
sg342
g353
sg344
Nsg345
Nsg346
Nsg348
I00
sg36
Nsbag313
(g335
g315
Ntp370
Rp371
(dp372
g339
S'ATI_Compress_MT_VC7.lib'
p373
sg341
I00
sg342
g353
sg344
Nsg345
Nsg346
S'x86'
p374
sg348
I00
sg36
Nsbag313
(g335
g315
Ntp375
Rp376
(dp377
g339
S'iwgx'
p378
sg341
I01
sg342
g353
sg344
Nsg345
Nsg346
Nsg348
I00
sg36
Nsbag313
(g335
g315
Ntp379
Rp380
(dp381
g339
S'iwgl'
p382
sg341
I01
sg342
g353
sg344
Nsg345
Nsg346
Nsg348
I00
sg36
Nsbag313
(g335
g315
Ntp383
Rp384
(dp385
g339
S'iwgeom'
p386
sg341
I01
sg342
g353
sg344
Nsg345
Nsg346
Nsg348
I00
sg36
Nsbag313
(g335
g315
Ntp387
Rp388
(dp389
g339
S'iwresmanager'
p390
sg341
I01
sg342
g353
sg344
Nsg345
Nsg346
Nsg348
I00
sg36
Nsbag313
(g335
g315
Ntp391
Rp392
(dp393
g339
S'iwgxfont_ttf'
p394
sg341
I01
sg342
g353
sg344
Nsg345
Nsg346
Nsg348
I00
sg36
Nsbag313
(g335
g315
Ntp395
Rp396
(dp397
g339
S'tiniconv'
p398
sg341
I01
sg342
g353
sg344
Nsg345
Nsg346
Nsg348
I00
sg36
Nsbag313
(g335
g315
Ntp399
Rp400
(dp401
g339
S'iwnui'
p402
sg341
I01
sg342
g353
sg344
Nsg345
Nsg346
Nsg348
I00
sg36
Nsbag313
(g335
g315
Ntp403
Rp404
(dp405
g339
S'iwui'
p406
sg341
I01
sg342
g353
sg344
Nsg345
Nsg346
Nsg348
I00
sg36
Nsbag313
(g335
g315
Ntp407
Rp408
(dp409
g339
S's3eNUI_iwui'
p410
sg341
I01
sg342
g353
sg344
Nsg345
Nsg346
Nsg348
I00
sg36
Nsbag313
(g335
g315
Ntp411
Rp412
(dp413
g339
S's3e_cpp'
p414
sg341
I01
sg342
g343
sg344
I00
sg345
I00
sg346
Nsg348
I00
sg36
Nsbag313
(g335
g315
Ntp415
Rp416
(dp417
g339
S's3e'
p418
sg341
I01
sg342
(lp419
S'iwcrt.o'
p420
asg344
I00
sg345
I00
sg346
Nsg348
I00
sg36
Nsbag313
(g335
g315
Ntp421
Rp422
(dp423
g339
g51
sg341
I01
sg342
g343
sg344
I00
sg345
I00
sg346
S'x86'
p424
sg348
I01
sg36
Nsbag313
(g335
g315
Ntp425
Rp426
(dp427
g339
g51
sg341
I01
sg342
g343
sg344
I00
sg345
I00
sg346
S'!x86'
p428
sg348
I01
sg36
Nsbag313
(g335
g315
Ntp429
Rp430
(dp431
g339
S'stdc++'
p432
sg341
I00
sg342
g343
sg344
I00
sg345
I00
sg346
S'mips'
p433
sg348
I00
sg36
Nsbag313
(g335
g315
Ntp434
Rp435
(dp436
g339
S'c'
p437
sg341
I00
sg342
g343
sg344
I00
sg345
I00
sg346
S'mips'
p438
sg348
I00
sg36
Nsbag313
(g335
g315
Ntp439
Rp440
(dp441
g339
S'm'
p442
sg341
I00
sg342
g343
sg344
I00
sg345
I00
sg346
S'mips'
p443
sg348
I00
sg36
Nsbag313
(g335
g315
Ntp444
Rp445
(dp446
g339
S'gcc'
p447
sg341
I00
sg342
g343
sg344
I00
sg345
I00
sg346
S'mips'
p448
sg348
I00
sg36
Nsbag313
(g335
g315
Ntp449
Rp450
(dp451
g339
S'stdc++'
p452
sg341
I00
sg342
g343
sg344
I00
sg345
I00
sg346
S'gcc_x86_android'
p453
sg348
I00
sg36
Nsbag313
(g335
g315
Ntp454
Rp455
(dp456
g339
g437
sg341
I00
sg342
g343
sg344
I00
sg345
I00
sg346
S'gcc_x86_android'
p457
sg348
I00
sg36
Nsbag313
(g335
g315
Ntp458
Rp459
(dp460
g339
g442
sg341
I00
sg342
g343
sg344
I00
sg345
I00
sg346
S'gcc_x86_android'
p461
sg348
I00
sg36
Nsbag313
(g335
g315
Ntp462
Rp463
(dp464
g339
g447
sg341
I00
sg342
g343
sg344
I00
sg345
I00
sg346
S'gcc_x86_android'
p465
sg348
I00
sg36
NsbasS'library_paths'
p466
(lp467
g313
(cmkb_main
LibraryPath
p468
g315
Ntp469
Rp470
(dp471
S'expand_path'
p472
I01
sg339
S'c:/program files/marmalade/7.4/modules/iwutil'
p473
sbag313
(g468
g315
Ntp474
Rp475
(dp476
g472
I01
sg339
S'c:/program files/marmalade/7.4/modules/third_party/libjpeg'
p477
sbag313
(g468
g315
Ntp478
Rp479
(dp480
g472
I01
sg339
S'c:/program files/marmalade/7.4/modules/third_party/zlib'
p481
sbag313
(g468
g315
Ntp482
Rp483
(dp484
g472
I01
sg339
S'c:/program files/marmalade/7.4/modules/third_party/libpng'
p485
sbag313
(g468
g315
Ntp486
Rp487
(dp488
g472
I01
sg339
S'c:/program files/marmalade/7.4/modules/iw2d'
p489
sbag313
(g468
g315
Ntp490
Rp491
(dp492
g472
I00
sg339
S'c:/program files/marmalade/7.4/modules/iwgx/atitools'
p493
sbag313
(g468
g315
Ntp494
Rp495
(dp496
g472
I01
sg339
S'c:/program files/marmalade/7.4/modules/iwgx'
p497
sbag313
(g468
g315
Ntp498
Rp499
(dp500
g472
I01
sg339
S'c:/program files/marmalade/7.4/modules/iwgl'
p501
sbag313
(g468
g315
Ntp502
Rp503
(dp504
g472
I01
sg339
S'c:/program files/marmalade/7.4/modules/iwgeom'
p505
sbag313
(g468
g315
Ntp506
Rp507
(dp508
g472
I01
sg339
S'c:/program files/marmalade/7.4/modules/iwresmanager'
p509
sbag313
(g468
g315
Ntp510
Rp511
(dp512
g472
I01
sg339
S'c:/program files/marmalade/7.4/modules/iwgxfont'
p513
sbag313
(g468
g315
Ntp514
Rp515
(dp516
g472
I01
sg339
S'c:/program files/marmalade/7.4/modules/third_party/tiniconv'
p517
sbag313
(g468
g315
Ntp518
Rp519
(dp520
g472
I01
sg339
S'c:/program files/marmalade/7.4/modules/iwnui'
p521
sbag313
(g468
g315
Ntp522
Rp523
(dp524
g472
I01
sg339
S'c:/program files/marmalade/7.4/modules/iwui'
p525
sbag313
(g468
g315
Ntp526
Rp527
(dp528
g472
I01
sg339
S'c:/program files/marmalade/7.4/extensions/s3enui'
p529
sbag313
(g468
g315
Ntp530
Rp531
(dp532
g472
I01
sg339
S'c:/program files/marmalade/7.4/s3e'
p533
sbasS'macros'
p534
(dp535
S'IW_TRACE_CHANNEL_UI'
p536
S'1'
p537
sS'IW_USE_CALLSTACK'
p538
NsS'IW_MKF_IWGEOM'
p539
NsS'I3D_PLATFORM_S3E'
p540
NsS'IW_MKF_IW2DSCENEGRAPHCORE'
p541
NsS'IW_ASSERTION_CHANNEL_PROPERTYSET'
p542
g537
sS'IW_ASSERTION_CHANNEL_2D'
p543
g537
sS'IW_MKF_LIBJPEG'
p544
NsS'I3D_OS_S3E'
p545
NsS'IW_MKF_PVRTEXTOOL'
p546
NsS'IW_MKF_TINICONV'
p547
NsS'IW_APP_VERSION'
p548
S'"1.0"'
p549
sS'__S3E__'
p550
NsS'IW_MKF_IWRESMANAGER'
p551
NsS'IW_MKF_IWUTIL'
p552
NsS'IW_ASSERTION_CHANNEL_UI'
p553
g537
sS'IW_PLATFORM_S3E'
p554
NsS'IW_TRACE_CHANNEL_NUI'
p555
g537
sS'IW_MKF_S3ENUI'
p556
NsS'IW_MKF_IWUI'
p557
NsS'IW_APP_NAME'
p558
S'"SprayAndPray"'
p559
sS'IW_MKF_S3E_DEFAULT'
p560
NsS'IW_MKF_IWGXFONT'
p561
NsS'IW_MKF_IWTWEEN'
p562
NsS'IW_MKF_ZLIB'
p563
NsS'IW_MKF_IWGX'
p564
NsS'IW_MKF_IW2DSCENEGRAPH'
p565
NsS'IW_MKF_SOUNDENGINE'
p566
NsS'IW_USE_ASSERTIONS'
p567
NsS'_CRT_SECURE_NO_DEPRECATE'
p568
NsS'IW_MKF_IWGL'
p569
NsS'IW_MKF_LIBPNG'
p570
NsS'IW_TRACE_CHANNEL_NUI_VERBOSE'
p571
S'2'
p572
sS'IW_DEBUG'
p573
NsS'IW_USE_TRACING'
p574
NsS'IW_MKF_S3ENUI_IWUI'
p575
NsS'IW_ASSERTION_CHANNEL_IW_2DSCENEGRAPH'
p576
g537
sS'IW_TRACE_CHANNEL_PVRTEXTOOL'
p577
g537
sS'IW_ASSERTION_CHANNEL_NUI'
p578
g537
sS'IW_TRACE_CHANNEL_IW_2DSCENEGRAPH'
p579
g537
sS'IW_SDK'
p580
NsS'S3E_INCLUDE_LEGACY'
p581
NsS'IW_TRACE_CHANNEL_PVRTEXTOOL_VERBOSE'
p582
g572
sS'IW_GXFONT_TTF'
p583
NsS'IW_MKF_IWNUI'
p584
NsS'IW_MKF_IW2D'
p585
NsS'IW_ASSERTION_CHANNEL_PVRTEXTOOL'
p586
g537
ssS'done_warnings'
p587
(dp588
sS'subprojects'
p589
(dp590
g191
S'iwnui'
p591
sg195
S'iwtween'
p592
sg180
S'zlib'
p593
sg181
S'iw2dscenegraphcore'
p594
sg184
S'iwgx'
p595
sg178
S'libjpeg'
p596
sg192
S's3eNUI'
p597
sg190
S'tiniconv'
p598
sg176
S's3e-default.mkf'
p599
sg179
S'libpng'
p600
sg183
S'iw2d'
p601
sg177
S'iwutil'
p602
sg188
S'PVRTexTool'
p603
sg182
S'iw2dscenegraph'
p604
sg187
S'iwresmanager'
p605
sg194
S'iwui'
p606
sg186
S'iwgeom'
p607
sg196
S'SoundEngine'
p608
sg193
S's3eNUI_iwui'
p609
sg185
S'iwgl'
p610
sg189
S'iwgxfont'
p611
ssS'deployments'
p612
(dp613
S'Default'
p614
g313
(cdeployment
Deployment
p615
g315
Ntp616
Rp617
(dp618
S'got_version'
p619
I0
sS'assets'
p620
g614
sS'mkb'
p621
g317
sS'target'
p622
Nsg346
(lp623
sS'options'
p624
(dp625
S'iphone-link-lib'
p626
(lp627
S's3eNUI '
p628
asS'game-icf'
p629
NsS'android-tm'
p630
NsS'winmobile-icon32'
p631
NsS'ws8-logo-image150x150'
p632
NsS'wp81-logo-image150x150'
p633
NsS'ws81-product-version'
p634
NsS'osx-ext-dll'
p635
(lp636
S'c:/program files/marmalade/7.4/extensions/pvrtextool/lib/osx/libPVRTexTool.dylib'
p637
asS'iphone-provisioning-profile'
p638
NsS'win32-icon'
p639
NsS'ws8-splash-screen-image620x300'
p640
NsS'wp81-extra-pri'
p641
(lp642
sS'ws8-ext-capabilities'
p643
(lp644
sS'android-icon-hdpi'
p645
NsS'iphone-ipad-only'
p646
NsS'iphone-splash-full-orient'
p647
NsS'wp8-tile-fliptemplate-supports-large'
p648
NsS'iphone-show-status-bar'
p649
NsS'roku-requires-mkv'
p650
NsS'long-caption'
p651
NsS'android-pkgname'
p652
NsS'wp81-publisher-display-name'
p653
NsS'blackberry-permissions-read-device-identifying-information'
p654
NsS'ws81-certificate-end-date'
p655
NsS'psp-dlgcontentid'
p656
NsS'iphone-minimum-ios-version'
p657
NsS'target-folder'
p658
NsS'tizen-dist1-CA-path'
p659
NsS'symbian-icon2-format'
p660
NsS'tizen-author-key'
p661
NsS'firefoxos-icon-128X128'
p662
NsS'iphone-region'
p663
NsS'uiq3-icon3-mask'
p664
NsS'brew-encoding'
p665
NsS'android-x86'
p666
NsS'nds-initialcode'
p667
NsS'iphone-persistent-wifi'
p668
NsS'psp-snd0'
p669
NsS'roku-icon-focus-hd'
p670
NsS'osx-appid'
p671
NsS'winmobile-install-folder'
p672
NsS'android-external-res'
p673
(lp674
sS'ws8-product-version'
p675
NsS'brew-priviledges'
p676
NsS'iphone-icon-ipad-search'
p677
NsS'iphone-icon-ipad'
p678
NsS'iphone-skip-icon-generation'
p679
NsS'roku-hidden'
p680
NsS'psp-titlename'
p681
NsS'wp81-product-version'
p682
NsS'symbian-icon1-mask'
p683
NsS'psp-parentallevel'
p684
NsS'iphone-launch-storyboard'
p685
NsS'splashscreen-use-all'
p686
NsS'wp8-author'
p687
NsS'symbian-disable-ecompxl'
p688
NsS'splashscreen-auto-onblack'
p689
NsS'iphone-icon-dir'
p690
NsS'iphone-icon-extra'
p691
NsS'win32-ext-dll'
p692
(lp693
S'c:/program files/marmalade/7.4/extensions/pvrtextool/lib/win32/PVRTexTool.dll'
p694
asS'iphone-development-key'
p695
NsS'winmobile-icon48'
p696
NsS'android-unsigned'
p697
NsS'osx-appstore-category'
p698
NsS'version-revision'
p699
NsS'roku-icon-focus-sd'
p700
NsS'android-keystore'
p701
NsS'winmobile-png90'
p702
NsS'iphone-icon-ipad-high-res'
p703
NsS'iphone-disable-ipad'
p704
NsS'ws81-splash-screen-background'
p705
NsS'wp8-ext-capabilities'
p706
(lp707
sS'brew-icon-large'
p708
NsS'symbian-icon1-mask-black'
p709
NsS'ws8-extra-res'
p710
(lp711
sS'iphone-bundle-localisations'
p712
NsS'winmobile-png60'
p713
NsS'blackberry-permissions-access-shared'
p714
NsS'blackberry-author'
p715
NsS'android-icon-xxxhdpi'
p716
NsS'olddeploytoolstyle'
p717
NsS'android_icon_gallery'
p718
NsS'wp81-splash-screen-background'
p719
NsS'winmobile-cab-compress'
p720
NsS'iphone-info-plist'
p721
NsS'ws81-ext-managed-dll'
p722
(lp723
sS'playbook-cskpass'
p724
NsS'ws8-distribution-pfx-password'
p725
NsS'symbian-key'
p726
NsS'app-icf'
p727
NsS'blackberry-storepass'
p728
NsS'wp8-tile-fliptemplate-back-title'
p729
NsS'brew-compress-loader'
p730
NsS'win32-pref-windowposy'
p731
NsS'win32-pref-windowposx'
p732
NsS'roku-requires-audiometadata'
p733
NsS'wp8-exclude-low-mem'
p734
NsS'iphone-icon-ipad-search-high-res'
p735
NsS'iphone-link-libdir'
p736
(lp737
S'c:/program files/marmalade/7.4/extensions/s3enui/lib/iphone'
p738
asS'wp81-ext-capabilities'
p739
(lp740
sS'blackberry-permissions-read-geolocation'
p741
NsS'ws81-ext-device-capabilities'
p742
(lp743
sS'tizen-signed'
p744
NsS'android-extra-application-manifest'
p745
(lp746
sS'ws8-ext-native-dll'
p747
(lp748
sS'symbian-icon2-mask'
p749
NsS'iphone-launch-extra'
p750
NsS'webos-memory'
p751
NsS'android-keypass'
p752
NsS'name'
p753
S'SprayAndPray'
p754
sS'uiq3-icon2-format'
p755
NsS'roku-splash-screen-sd'
p756
NsS'auto-derbh'
p757
NsS'roku-icon-side-sd'
p758
NsS'android-external-assets'
p759
(lp760
sS'nds-publicsavedatasize'
p761
NsS'splashscreen'
p762
S'd:/Git/Year2/fga2.gt2/SprayAndPray/data/splash.png'
p763
sS'brew-mif'
p764
NsS'iphone-icon-settings-high-res'
p765
NsS'android-manifest'
p766
NsS'ws81-splash-screen-image620x300'
p767
NsS'wp81-product-name'
p768
NsS's3e-compression'
p769
NsS'tizen-author-password'
p770
NsS'wp8-tile-fliptemplate-back-content'
p771
NsS'blackberry-extra-descriptor'
p772
(lp773
sS'symbian-icon1'
p774
NsS'symbian-icon2'
p775
NsS'nds-makercode'
p776
NsS'android-extra-styles-file'
p777
NsS'wp81-publisher-id'
p778
NsS'nds-bannertitle-jp'
p779
NsS'wp81-logo-image44x44'
p780
NsS'osx-sign-for-store'
p781
NsS'symbian7-uid'
p782
NsS'wp8-tile-fliptemplate-large-back-content'
p783
NsS'wp81-phone-publisher-id'
p784
NsS'nds-bannertitle-cn'
p785
NsS'iphone-distribution-key'
p786
NsS'android-icon-gallery'
p787
NsS'blackberry-keystore'
p788
NsS'iphone-nosign'
p789
NsS'caption'
p790
S'Spray & Pray'
p791
sS'android-extra-manifest'
p792
(lp793
sS'wp81-ext-sdk-ref'
p794
(lp795
sS'android-icon-xxhdpi'
p796
NsS'version-minor'
p797
NsS'iphone-skip-launch-generation'
p798
NsS'iphone-link-libdirs'
p799
(lp800
sS'iphone-icon-large'
p801
NsS'symbian-keypwd'
p802
NsS'symbian8-uid'
p803
NsS'symbian-cert-key'
p804
NsS'winmobile-ampd-part-number'
p805
NsS'arch'
p806
NsS'nds-romheadertemplate'
p807
NsS'webos-icon'
p808
NsS'wp81-ext-device-capabilities'
p809
(lp810
sS'psp-dlgprotectdocument'
p811
NsS'ws8-splash-screen-background'
p812
NsS'android-icon-mdpi'
p813
NsS'nds-icon'
p814
NsS'ws8-custom-manifest-fill'
p815
NsS'iphone-development-cert'
p816
NsS'blackberry-phone-icon'
p817
NsS'iphone-enable-4inch-retina'
p818
NsS'ws8-custom-manifest'
p819
NsS'version-major'
p820
NsS'wp8-genre-isgame'
p821
NsS'uiq3-uid'
p822
NsS'iphone-splash-retina-generate'
p823
NsS'tizen-hw-acceleration'
p824
NsS'iphone_bundle_localisations'
p825
NsS'tizen-dist1-key'
p826
NsS'wp81-custom-manifest-fill'
p827
NsS'wp8-custom-manifest'
p828
NsS'nds-bannertitle-ge'
p829
NsS'iphone-sign-for-distribution'
p830
NsS'wp8-tile-fliptemplate-medium-back-image'
p831
NsS'wp8-publisher-id'
p832
NsS'icon'
p833
S'd:/Git/Year2/fga2.gt2/SprayAndPray/data/icon.png'
p834
sS'wp8-exclude-wxga'
p835
NsS'wp81-identity-name'
p836
NsS'uiq3-icon2-mask'
p837
NsS'iphone-splashscreen-portrait'
p838
NsS'iphone-icon-high-res'
p839
NsS'ws81-distribution-pfx-password'
p840
NsS'playbook-author'
p841
NsS'android-icon-xhdpi'
p842
NsS'linux-ext-lib'
p843
(lp844
sS'blackberry-permissions-access-internet'
p845
NsS'wp8-exclude-720p'
p846
NsS'lgtv-use-drm'
p847
NsS'symbian-platsecflags'
p848
NsS'ws8-description'
p849
NsS'blackberry-playbook-icon'
p850
NsS'copyright'
p851
NsS'win32-gles-directory'
p852
NsS'version'
p853
NsS'iphone-uiviewcontroller-based-status-bar'
p854
NsS'ws81-logo-image150x150'
p855
NsS'osx-signing-identity-app'
p856
NsS'tizen-project-url'
p857
NsS'symbian-icon-svg'
p858
NsS'android-aliasname'
p859
NsS'psp-dlgmanual'
p860
NsS'brew-uid'
p861
NsS'symbian-locationsupport'
p862
NsS'wp81-logo-image50x50'
p863
NsS'ws8-ext-managed-dll'
p864
(lp865
sS'nds-bannertitle-it'
p866
NsS'ws81-custom-manifest-fill'
p867
NsS'ws8-ext-sdk-manifest-part'
p868
(lp869
sS'uiq3-icon1-mask'
p870
NsS'winmobile-icon16'
p871
NsS'ws8-product-name'
p872
NsS'blackberry-cskpass'
p873
NsS'winmobile-start-menu-folder'
p874
NsS'brew-clsid'
p875
NsS'roku-requires-bluetooth'
p876
NsS'ws8-ext-device-capabilities'
p877
(lp878
sS'blackberry-permissions-use-camera'
p879
NsS'ws81-extra-pri'
p880
(lp881
sS'iphone-prerendered-icon'
p882
NsS'iphone-appid'
p883
NsS'ws8-identity-name'
p884
NsS'tizen-dist2-CA-path'
p885
NsS'android-external-jars'
p886
(lp887
S'c:/program files/marmalade/7.4/extensions/s3enui/lib/android/s3eNUI.jar'
p888
asS'winmobile-icon64'
p889
NsS'blackberry-permissions-post-notification'
p890
NsS'winmobile-setup-dll'
p891
NsS'firefoxos-manifest'
p892
NsS'win8-winrt-extra-res'
p893
(lp894
sS'wp81-ext-sdk-manifest-part'
p895
(lp896
sS'symbian9-uid'
p897
NsS'iphone-icon-ipad-ios7'
p898
NsS'winmobile-trace-file'
p899
NsS'roku-splash-color'
p900
NsS'psp-appversion'
p901
NsS'ws8-publisher-id'
p902
NsS'android-supports-gl-texture'
p903
(lp904
sS'winmobile-png45'
p905
NsS'wp81-extra-res'
p906
(lp907
sS'android-storepass'
p908
NsS'osx-signing-identity-inst'
p909
NsS'android-custom-activity'
p910
NsS'psp-discversion'
p911
NsS'wp81-ext-managed-dll'
p912
(lp913
sS'psp-copyright'
p914
NsS'embed-icf'
p915
NsS'tizen-manifest'
p916
NsS'osx-icon'
p917
NsS'webos-appinfo'
p918
NsS'psp-dlghealthwarning'
p919
NsS'webos-appid'
p920
NsS'roku-icon-side-hd'
p921
NsS'iphone-icon-ipad-search-high-res-ios7'
p922
NsS'ws81-ext-sdk-manifest-part'
p923
(lp924
sS'loader_name_prefix'
p925
NsS'iphone-launch-dir'
p926
NsS'nds-titlename'
p927
NsS'ws81-logo-image50x50'
p928
NsS'wp81-custom-manifest'
p929
NsS'osx-entitlements-plist'
p930
NsS'psp-dlgicon0'
p931
NsS'winmobile-nouninstall'
p932
NsS'psp-discid'
p933
NsS'tizen-dist2-password'
p934
NsS'ws8-ext-sdk-ref'
p935
(lp936
sS'iphone-extra-string'
p937
(lp938
sS'version-string'
p939
NsS'iphone-icon-high-res-ios7'
p940
NsS'blackberry-permissions-record-audio'
p941
NsS'ws8-certificate-end-date'
p942
NsS'tizen-so'
p943
(lp944
sS'wp8-tile-fliptemplate-small-image'
p945
NsS'playbook-authorid'
p946
NsS'iphone-signing-identity'
p947
NsS'roku-persist-quota'
p948
NsS'nds-bannertitle-fr'
p949
NsS'ws8-distribution-pfx'
p950
NsS'ws8-publisher-display-name'
p951
NsS'brew-icon-small'
p952
NsS'psp-dlgpic2'
p953
NsS'psp-dlgpic0'
p954
NsS'psp-pic0'
p955
NsS'psp-pic1'
p956
NsS'win32-pref-windowtitle'
p957
NsS'psp-icon0'
p958
NsS'psp-icon1'
p959
NsS'ws81-identity-name'
p960
NsS'winmobile-icon'
p961
NsS'iphone-no-splash'
p962
NsS'iphone-splash'
p963
NsS'iphone-app-fonts'
p964
I1
sS'wp8-ext-native-dll'
p965
(lp966
sS'wp81-splash-screen-image480x800'
p967
NsS'ws81-distribution-cer'
p968
NsS'iphone-backgroundmode-audio'
p969
NsS'uiq3-icon2'
p970
NsS'uiq3-icon3'
p971
NsS'uiq3-icon1'
p972
NsS'uiq3-icon1-format'
p973
NsS'ws8-logo-image50x50'
p974
NsS'symbian-icon2-mask-black'
p975
NsS'symbian-run-on-install'
p976
NsS'wp81-description'
p977
NsS'ws81-publisher-display-name'
p978
NsS'firefoxos-xulrunner'
p979
NsS'symbian-soundrecordsupport'
p980
NsS'nds-bannertitle-sp'
p981
NsS'psp-producer'
p982
NsS'iphone-apple-wwdr-cert'
p983
NsS'android-icon-nonstandard'
p984
NsS'win32-pref-processtitle'
p985
NsS'nds-bannertitle-hn'
p986
NsS'tizen-dist2-key'
p987
NsS'brew-depends'
p988
NsS'ws81-custom-manifest'
p989
NsS'iphone-allow-launch-rotation'
p990
NsS'iphone-icon-ipad-search-ios7'
p991
NsS'brew-icon-medium'
p992
NsS'iphone-bundle-url-name'
p993
NsS'wp8-tile-fliptemplate-large-front-image'
p994
NsS'tizen-dist2-CA-root-path'
p995
NsS'ws81-description'
p996
NsS'uiq3-icon3-format'
p997
NsS'ws81-logo-image30x30'
p998
NsS'win8-phone-extra-res'
p999
(lp1000
sS'iphone-signing-host'
p1001
NsS'tizen-icon'
p1002
NsS'osx-info-plist'
p1003
NsS'symbian-icon1-format'
p1004
NsS'win8-store-extra-res'
p1005
(lp1006
sS'blackberry-authorid'
p1007
NsS'ws81-publisher-id'
p1008
NsS'ws81-distribution-pfx'
p1009
NsS'wp8-description'
p1010
NsS'iphone-link-opts'
p1011
(lp1012
sS'ws81-ext-sdk-ref'
p1013
(lp1014
sS'roku-splash-min-time'
p1015
NsS'wp8-tile-fliptemplate-medium-front-image'
p1016
NsS'iphone-disable-launch-images'
p1017
NsS'provider'
p1018
NsS'playbook-keystore'
p1019
NsS'tizen-appid'
p1020
NsS'wp8-extra-res'
p1021
(lp1022
sS'symbian-osexecsupport'
p1023
NsS'android-install-location'
p1024
NsS'nds-privatesavedatasize'
p1025
NsS'iphone-disable-testflight'
p1026
NsS'playbook-storepass'
p1027
NsS'android-icon-ldpi'
p1028
NsS'manufacturer'
p1029
NsS'itunes-artwork'
p1030
NsS'iphone-extra-sections'
p1031
NsS'ws81-product-name'
p1032
NsS'ws81-ext-native-dll'
p1033
(lp1034
sS'ws8-extra-pri'
p1035
(lp1036
sS'wp8-product-id'
p1037
NsS'ws8-logo-image30x30'
p1038
NsS'wp8-ext-managed-dll'
p1039
(lp1040
sS'iphone-splashscreen-landscape'
p1041
NsS'symbian-maxheapsize'
p1042
NsS'android-extra-packages'
p1043
(lp1044
sS'priv-sign-key'
p1045
NsS'networking'
p1046
NsS'android-icon'
p1047
NsS'iphone-icon-settings'
p1048
NsS'wp81-phone-product-id'
p1049
NsS'firefoxos-icon-60X60'
p1050
NsS'iphone-distribution-cert'
p1051
NsS'android_extra_strings'
p1052
NsS'nds-bannertitle-en'
p1053
NsS'wp8-tile-fliptemplate-title'
p1054
NsS'android-so'
p1055
(lp1056
S'c:/program files/marmalade/7.4/extensions/s3enui/lib/android/libs3eNUI.so'
p1057
asS'wp8-higher-mem'
p1058
NsS'wp8-ext-sdk-ref'
p1059
(lp1060
sS'wp8-fast-resume-mode'
p1061
NsS'roku-splash-screen-hd'
p1062
NsS'iphone-bundle-url-schemes'
p1063
NsS'roku-screensaver-private'
p1064
NsS'osx-extra-res'
p1065
(lp1066
sS'ws81-extra-res'
p1067
(lp1068
sS'playbook-icon'
p1069
NsS'uid'
p1070
NsS'pkguid-as-uid'
p1071
NsS'wp81-ext-native-dll'
p1072
(lp1073
sS'tizen-dist1-password'
p1074
NsS'roku-screensaver-title'
p1075
NsS'osx-minimum-osx-version'
p1076
NsS'symbian-cert'
p1077
NsS'iphone-icon'
p1078
NsS'ws81-ext-capabilities'
p1079
(lp1080
sS'ws8-distribution-cer'
p1081
NsS'playbook-access-shared'
p1082
NsS'iphone-icon-ipad-high-res-ios7'
p1083
NsS'iphone-link-libs'
p1084
(lp1085
sS'wp8-exclude-wvga'
p1086
NsS'assets'
p1087
NsS'wp8-tile-fliptemplate-large-back-image'
p1088
NsS'wp8-custom-manifest-fill'
p1089
NsS'pub-sign-key'
p1090
NsS'android-extra-strings'
p1091
NsS'tizen-author-CA-path'
p1092
Nssg339
g614
sbssS'platform'
p1093
S'S3E'
p1094
sg66
S'1.0'
p1095
sS'arcade_platform'
p1096
g4
sS'extensions'
p1097
(dp1098
sS'source_groups_tree'
p1099
(dp1100
S'd:/Git/Year2/fga2.gt2/SprayAndPray/definitions.cpp'
p1101
(lp1102
I1
a(dp1103
asS'd:/Git/Year2/fga2.gt2/SprayAndPray/GuiElement.h'
p1104
(lp1105
I1
ag1103
asS'd:/Git/Year2/fga2.gt2/SprayAndPray/Button.h'
p1106
(lp1107
I1
ag1103
asS'(libpng)'
p1108
(dp1109
S'h'
p1110
(dp1111
S'c:/program files/marmalade/7.4/modules/third_party/libpng/h/png.h'
p1112
(lp1113
I1
a(dp1114
asS'c:/program files/marmalade/7.4/modules/third_party/libpng/h/pngconf.h'
p1115
(lp1116
I1
ag1114
assS'c:/program files/marmalade/7.4/modules/third_party/libpng/libpng.mkf'
p1117
(lp1118
I1
a(dp1119
assS'd:/Git/Year2/fga2.gt2/SprayAndPray/Sprite.cpp'
p1120
(lp1121
I1
ag1103
asS'(libjpeg)'
p1122
(dp1123
g1110
(dp1124
S'c:/program files/marmalade/7.4/modules/third_party/libjpeg/h/jmorecfg.h'
p1125
(lp1126
I1
a(dp1127
asS'c:/program files/marmalade/7.4/modules/third_party/libjpeg/h/jversion.h'
p1128
(lp1129
I1
ag1127
asS'c:/program files/marmalade/7.4/modules/third_party/libjpeg/h/transupp.h'
p1130
(lp1131
I1
ag1127
asS'c:/program files/marmalade/7.4/modules/third_party/libjpeg/h/jdhuff.h'
p1132
(lp1133
I1
ag1127
asS'c:/program files/marmalade/7.4/modules/third_party/libjpeg/h/cderror.h'
p1134
(lp1135
I1
ag1127
asS'c:/program files/marmalade/7.4/modules/third_party/libjpeg/h/jinclude.h'
p1136
(lp1137
I1
ag1127
asS'c:/program files/marmalade/7.4/modules/third_party/libjpeg/h/jerror.h'
p1138
(lp1139
I1
ag1127
asS'c:/program files/marmalade/7.4/modules/third_party/libjpeg/h/jpegint.h'
p1140
(lp1141
I1
ag1127
asS'c:/program files/marmalade/7.4/modules/third_party/libjpeg/h/jconfig.h'
p1142
(lp1143
I1
ag1127
asS'c:/program files/marmalade/7.4/modules/third_party/libjpeg/h/jpeglib.h'
p1144
(lp1145
I1
ag1127
asS'c:/program files/marmalade/7.4/modules/third_party/libjpeg/h/cdjpeg.h'
p1146
(lp1147
I1
ag1127
asS'c:/program files/marmalade/7.4/modules/third_party/libjpeg/h/jmemsys.h'
p1148
(lp1149
I1
ag1127
asS'c:/program files/marmalade/7.4/modules/third_party/libjpeg/h/jchuff.h'
p1150
(lp1151
I1
ag1127
asS'c:/program files/marmalade/7.4/modules/third_party/libjpeg/h/jdct.h'
p1152
(lp1153
I1
ag1127
assS'c:/program files/marmalade/7.4/modules/third_party/libjpeg/libjpeg.mkf'
p1154
(lp1155
I1
a(dp1156
assS'(tiniconv)'
p1157
(dp1158
S'c:/program files/marmalade/7.4/modules/third_party/tiniconv/source/tiniconv_int.h'
p1159
(lp1160
I1
a(dp1161
asS'c:/program files/marmalade/7.4/modules/third_party/tiniconv/tiniconv.mkf'
p1162
(lp1163
I1
a(dp1164
asS'c:/program files/marmalade/7.4/modules/third_party/tiniconv/source/tiniconv.h'
p1165
(lp1166
I1
ag1161
assS'd:/Git/Year2/fga2.gt2/SprayAndPray/Menu.cpp'
p1167
(lp1168
I1
ag1103
asS'd:/Git/Year2/fga2.gt2/SprayAndPray/Menu.h'
p1169
(lp1170
I1
ag1103
asS'(SoundEngine)'
p1171
(dp1172
S'd:/git/year2/fga2.gt2/sprayandpray/SoundEngine/source/IwSoundGroup.cpp'
p1173
(lp1174
I1
a(dp1175
asS'd:/git/year2/fga2.gt2/sprayandpray/SoundEngine/h/IwSound.h'
p1176
(lp1177
I1
ag1175
asS'd:/git/year2/fga2.gt2/sprayandpray/SoundEngine/source/IwSoundData.cpp'
p1178
(lp1179
I1
ag1175
asS'd:/git/year2/fga2.gt2/sprayandpray/SoundEngine/h/IwSoundSpec.h'
p1180
(lp1181
I1
ag1175
asS'd:/git/year2/fga2.gt2/sprayandpray/SoundEngine/h/IwSoundData.h'
p1182
(lp1183
I1
ag1175
asS'd:/git/year2/fga2.gt2/sprayandpray/SoundEngine/h/IwSoundADPCM.h'
p1184
(lp1185
I1
ag1175
asS'd:/git/year2/fga2.gt2/sprayandpray/SoundEngine/h/IwSoundPCM.h'
p1186
(lp1187
I1
ag1175
asS'd:/git/year2/fga2.gt2/sprayandpray/SoundEngine/source/IwSoundSpec.cpp'
p1188
(lp1189
I1
ag1175
asS'd:/git/year2/fga2.gt2/sprayandpray/soundengine.mkf'
p1190
(lp1191
I1
a(dp1192
asS'd:/git/year2/fga2.gt2/sprayandpray/SoundEngine/h/IwSoundManager.h'
p1193
(lp1194
I1
ag1175
asS'd:/git/year2/fga2.gt2/sprayandpray/SoundEngine/source/IwSoundADPCM.cpp'
p1195
(lp1196
I1
ag1175
asS'd:/git/year2/fga2.gt2/sprayandpray/SoundEngine/h/IwSoundGroup.h'
p1197
(lp1198
I1
ag1175
asS'd:/git/year2/fga2.gt2/sprayandpray/SoundEngine/source/IwSoundPCM.cpp'
p1199
(lp1200
I1
ag1175
asS'd:/git/year2/fga2.gt2/sprayandpray/SoundEngine/h/IwResHandlerWAV.h'
p1201
(lp1202
I1
ag1175
asS'Docs'
p1203
(dp1204
S'd:/git/year2/fga2.gt2/sprayandpray/SoundEngine/docs/iwsound.config.txt'
p1205
(lp1206
I1
ag1175
assS'd:/git/year2/fga2.gt2/sprayandpray/SoundEngine/h/IwSoundInst.h'
p1207
(lp1208
I1
ag1175
asS'd:/git/year2/fga2.gt2/sprayandpray/SoundEngine/source/IwSoundManager.cpp'
p1209
(lp1210
I1
ag1175
asS'd:/git/year2/fga2.gt2/sprayandpray/SoundEngine/source/IwResHandlerWAV.cpp'
p1211
(lp1212
I1
ag1175
asS'd:/git/year2/fga2.gt2/sprayandpray/SoundEngine/source/IwSoundParams.cpp'
p1213
(lp1214
I1
ag1175
asS'd:/git/year2/fga2.gt2/sprayandpray/SoundEngine/source/IwSoundInst.cpp'
p1215
(lp1216
I1
ag1175
asS'd:/git/year2/fga2.gt2/sprayandpray/SoundEngine/h/IwSoundParams.h'
p1217
(lp1218
I1
ag1175
assS'd:/Git/Year2/fga2.gt2/SprayAndPray/ImageManager.cpp'
p1219
(lp1220
I1
ag1103
asS'd:/Git/Year2/fga2.gt2/SprayAndPray/CollisionManager.h'
p1221
(lp1222
I1
ag1103
asS'd:/Git/Year2/fga2.gt2/SprayAndPray/View.cpp'
p1223
(lp1224
I1
ag1103
asS'd:/Git/Year2/fga2.gt2/SprayAndPray/View.h'
p1225
(lp1226
I1
ag1103
asS'd:/Git/Year2/fga2.gt2/SprayAndPray/definitions.h'
p1227
(lp1228
I1
ag1103
asS'(zlib)'
p1229
(dp1230
g1110
(dp1231
S'c:/program files/marmalade/7.4/modules/third_party/zlib/h/zconf.h'
p1232
(lp1233
I1
a(dp1234
asS'c:/program files/marmalade/7.4/modules/third_party/zlib/h/zlib.h'
p1235
(lp1236
I1
ag1234
assS'c:/program files/marmalade/7.4/modules/third_party/zlib/zlib.mkf'
p1237
(lp1238
I1
a(dp1239
assS'd:/Git/Year2/fga2.gt2/SprayAndPray/GuiElement.cpp'
p1240
(lp1241
I1
ag1103
asS'd:/Git/Year2/fga2.gt2/SprayAndPray/Button.cpp'
p1242
(lp1243
I1
ag1103
asS'd:/Git/Year2/fga2.gt2/SprayAndPray/CollisionManager.cpp'
p1244
(lp1245
I1
ag1103
asS'd:/Git/Year2/fga2.gt2/SprayAndPray/Sprite.h'
p1246
(lp1247
I1
ag1103
asS'd:/Git/Year2/fga2.gt2/SprayAndPray/GuiTexture.h'
p1248
(lp1249
I1
ag1103
asS'd:/Git/Year2/fga2.gt2/SprayAndPray/Game.cpp'
p1250
(lp1251
I1
ag1103
asS'd:/Git/Year2/fga2.gt2/SprayAndPray/ImageManager.h'
p1252
(lp1253
I1
ag1103
asS'd:/Git/Year2/fga2.gt2/SprayAndPray/Input.h'
p1254
(lp1255
I1
ag1103
asS'd:/Git/Year2/fga2.gt2/SprayAndPray/Checkbox.h'
p1256
(lp1257
I1
ag1103
asS'd:/Git/Year2/fga2.gt2/SprayAndPray/Game.h'
p1258
(lp1259
I1
ag1103
asS'd:/Git/Year2/fga2.gt2/SprayAndPray/Bullet.cpp'
p1260
(lp1261
I1
ag1103
asS"'Marmalade Studio'"
p1262
(dp1263
S'iw2dscenegraph'
p1264
(dp1265
S'c:/program files/marmalade/7.4/modules/iw2dscenegraph/source/Iw2DSceneGraph.cpp'
p1266
(lp1267
I1
a(dp1268
asS'c:/program files/marmalade/7.4/modules/iw2dscenegraph/iw2dscenegraph.mkf'
p1269
(lp1270
I1
a(dp1271
asS'c:/program files/marmalade/7.4/modules/iw2dscenegraph/docs/iw2dscenegraph.defines.txt'
p1272
(lp1273
I1
ag1268
asS'c:/program files/marmalade/7.4/modules/iw2dscenegraph/h/Iw2DSceneGraph.h'
p1274
(lp1275
I1
ag1268
assS'iwgl'
p1276
(dp1277
S'c:/program files/marmalade/7.4/modules/iwgl/docs/iwgl.config.txt'
p1278
(lp1279
I1
a(dp1280
asS'c:/program files/marmalade/7.4/modules/iwgl/h/IwGLExt.h'
p1281
(lp1282
I1
ag1280
asS'c:/program files/marmalade/7.4/modules/iwgl/iwgl.mkf'
p1283
(lp1284
I1
a(dp1285
asS'c:/program files/marmalade/7.4/modules/iwgl/h/IwGL.h'
p1286
(lp1287
I1
ag1280
assS'iw2d'
p1288
(dp1289
S'c:/program files/marmalade/7.4/modules/iw2d/docs/iw2d_public.defines.txt'
p1290
(lp1291
I1
a(dp1292
asS'c:/program files/marmalade/7.4/modules/iw2d/h/Iw2D.h'
p1293
(lp1294
I1
ag1292
asS'c:/program files/marmalade/7.4/modules/iw2d/docs/iw2d.config.txt'
p1295
(lp1296
I1
ag1292
asS'c:/program files/marmalade/7.4/modules/iw2d/iw2d.mkf'
p1297
(lp1298
I1
a(dp1299
assS'iwgxfont'
p1300
(dp1301
S'c:/program files/marmalade/7.4/modules/iwgxfont/h/IwGxFontTypes.h'
p1302
(lp1303
I1
a(dp1304
asS'c:/program files/marmalade/7.4/modules/iwgxfont/h/IwGxFontState.h'
p1305
(lp1306
I1
ag1304
asS'c:/program files/marmalade/7.4/modules/iwgxfont/h/IwGxFontPreparedData.h'
p1307
(lp1308
I1
ag1304
asS'c:/program files/marmalade/7.4/modules/iwgxfont/h/IwGxFont.h'
p1309
(lp1310
I1
ag1304
asS'c:/program files/marmalade/7.4/modules/iwgxfont/iwgxfont.mkf'
p1311
(lp1312
I1
a(dp1313
asS'c:/program files/marmalade/7.4/modules/iwgxfont/h/IwGxFontContainer.h'
p1314
(lp1315
I1
ag1304
asS'c:/program files/marmalade/7.4/modules/iwgxfont/docs/iwgxfont_public.defines.txt'
p1316
(lp1317
I1
ag1304
asS'c:/program files/marmalade/7.4/modules/iwgxfont/h/IwGxFontGlyph.h'
p1318
(lp1319
I1
ag1304
asS'c:/program files/marmalade/7.4/modules/iwgxfont/docs/iwgxfont.config.txt'
p1320
(lp1321
I1
ag1304
assS'iwgeom'
p1322
(dp1323
S'c:/program files/marmalade/7.4/modules/iwgeom/h/IwGeomMat.h.tpl'
p1324
(lp1325
I1
a(dp1326
asS'c:/program files/marmalade/7.4/modules/iwgeom/h/IwGeomSVec4.h'
p1327
(lp1328
I1
ag1326
asS'c:/program files/marmalade/7.4/modules/iwgeom/h/IwGeomFVec2.h'
p1329
(lp1330
I1
ag1326
asS'c:/program files/marmalade/7.4/modules/iwgeom/h/IwGeomIntersect.h'
p1331
(lp1332
I1
ag1326
asS'c:/program files/marmalade/7.4/modules/iwgeom/h/IwGeomSphere.h'
p1333
(lp1334
I1
ag1326
asS'c:/program files/marmalade/7.4/modules/iwgeom/h/IwGeomSqrt.h'
p1335
(lp1336
I1
ag1326
asS'c:/program files/marmalade/7.4/modules/iwgeom/h/IwGeomQuat.h.tpl'
p1337
(lp1338
I1
ag1326
asS'c:/program files/marmalade/7.4/modules/iwgeom/h/IwGeomMat2D.h.tpl'
p1339
(lp1340
I1
ag1326
asS'c:/program files/marmalade/7.4/modules/iwgeom/h/IwGeomFIntersect.h'
p1341
(lp1342
I1
ag1326
asS'c:/program files/marmalade/7.4/modules/iwgeom/h/IwGeomSQuat.h'
p1343
(lp1344
I1
ag1326
asS'c:/program files/marmalade/7.4/modules/iwgeom/h/IwGeomBBox.h'
p1345
(lp1346
I1
ag1326
asS'c:/program files/marmalade/7.4/modules/iwgeom/h/IwGeomSVec3.h'
p1347
(lp1348
I1
ag1326
asS'c:/program files/marmalade/7.4/modules/iwgeom/h/IwGeomFVec4.h'
p1349
(lp1350
I1
ag1326
asS'c:/program files/marmalade/7.4/modules/iwgeom/h/IwGeomVec.h.tpl'
p1351
(lp1352
I1
ag1326
asS'c:/program files/marmalade/7.4/modules/iwgeom/h/IwGeomCore.h'
p1353
(lp1354
I1
ag1326
asS'c:/program files/marmalade/7.4/modules/iwgeom/h/IwGeomSVec2.h'
p1355
(lp1356
I1
ag1326
asS'c:/program files/marmalade/7.4/modules/iwgeom/h/IwGeomFMat.h'
p1357
(lp1358
I1
ag1326
asS'c:/program files/marmalade/7.4/modules/iwgeom/h/IwGeomVec.h'
p1359
(lp1360
I1
ag1326
asS'c:/program files/marmalade/7.4/modules/iwgeom/h/IwGeomPlane.h'
p1361
(lp1362
I1
ag1326
asS'c:/program files/marmalade/7.4/modules/iwgeom/h/IwGeomFMat2D.h'
p1363
(lp1364
I1
ag1326
asS'c:/program files/marmalade/7.4/modules/iwgeom/h/IwGeomMenu.h'
p1365
(lp1366
I1
ag1326
asS'c:/program files/marmalade/7.4/modules/iwgeom/h/IwGeomMat2D.h'
p1367
(lp1368
I1
ag1326
asS'c:/program files/marmalade/7.4/modules/iwgeom/h/IwGeomFVec3.h'
p1369
(lp1370
I1
ag1326
asS'c:/program files/marmalade/7.4/modules/iwgeom/h/IwGeom.h'
p1371
(lp1372
I1
ag1326
asS'c:/program files/marmalade/7.4/modules/iwgeom/h/IwGeomFPlane.h'
p1373
(lp1374
I1
ag1326
asS'c:/program files/marmalade/7.4/modules/iwgeom/h/IwGeomQuat.h'
p1375
(lp1376
I1
ag1326
asS'c:/program files/marmalade/7.4/modules/iwgeom/h/IwGeomFBBox.h'
p1377
(lp1378
I1
ag1326
asS'c:/program files/marmalade/7.4/modules/iwgeom/h/IwGeomFQuat.h'
p1379
(lp1380
I1
ag1326
asS'c:/program files/marmalade/7.4/modules/iwgeom/h/IwGeomVec4.h'
p1381
(lp1382
I1
ag1326
asS'c:/program files/marmalade/7.4/modules/iwgeom/docs/iwgeom.config.txt'
p1383
(lp1384
I1
ag1326
asS'c:/program files/marmalade/7.4/modules/iwgeom/h/IwGeomMat.h'
p1385
(lp1386
I1
ag1326
asS'c:/program files/marmalade/7.4/modules/iwgeom/h/IwGeomVec3.h'
p1387
(lp1388
I1
ag1326
asS'c:/program files/marmalade/7.4/modules/iwgeom/h/IwGeomFSphere.h'
p1389
(lp1390
I1
ag1326
asS'c:/program files/marmalade/7.4/modules/iwgeom/iwgeom.mkf'
p1391
(lp1392
I1
a(dp1393
asS'c:/program files/marmalade/7.4/modules/iwgeom/h/IwGeomVec2.h'
p1394
(lp1395
I1
ag1326
asS'c:/program files/marmalade/7.4/modules/iwgeom/h/IwGeomLegacy.h'
p1396
(lp1397
I1
ag1326
assS'iwnui'
p1398
(dp1399
S'c:/program files/marmalade/7.4/modules/iwnui/h/IwNUITextField.h'
p1400
(lp1401
I1
a(dp1402
asS'c:/program files/marmalade/7.4/modules/iwnui/h/IwNUINavigationBar.h'
p1403
(lp1404
I1
ag1402
asS'c:/program files/marmalade/7.4/modules/iwnui/h/IwNUIProgressBar.h'
p1405
(lp1406
I1
ag1402
asS'c:/program files/marmalade/7.4/modules/iwnui/h/IwNUIListbox.h'
p1407
(lp1408
I1
ag1402
asS'c:/program files/marmalade/7.4/modules/iwnui/h/IwNUIElement.h'
p1409
(lp1410
I1
ag1402
asS'c:/program files/marmalade/7.4/modules/iwnui/h/IwNUIToolBar.h'
p1411
(lp1412
I1
ag1402
asS'c:/program files/marmalade/7.4/modules/iwnui/h/IwNUICheckBox.h'
p1413
(lp1414
I1
ag1402
asS'c:/program files/marmalade/7.4/modules/iwnui/h/IwMap.h'
p1415
(lp1416
I1
ag1402
asS'c:/program files/marmalade/7.4/modules/iwnui/h/IwNUISliderBar.h'
p1417
(lp1418
I1
ag1402
asS'c:/program files/marmalade/7.4/modules/iwnui/h/IwNUIImage.h'
p1419
(lp1420
I1
ag1402
asS'c:/program files/marmalade/7.4/modules/iwnui/h/IwNUIEventDispatcher.h'
p1421
(lp1422
I1
ag1402
asS'c:/program files/marmalade/7.4/modules/iwnui/h/IwNUIButton.h'
p1423
(lp1424
I1
ag1402
asS'c:/program files/marmalade/7.4/modules/iwnui/h/IwNUIToolBarButton.h'
p1425
(lp1426
I1
ag1402
asS'c:/program files/marmalade/7.4/modules/iwnui/h/IwNUIAlertDialog.h'
p1427
(lp1428
I1
ag1402
asS'c:/program files/marmalade/7.4/modules/iwnui/h/IwNUILabel.h'
p1429
(lp1430
I1
ag1402
asS'c:/program files/marmalade/7.4/modules/iwnui/h/IwNUIScrollView.h'
p1431
(lp1432
I1
ag1402
asS'c:/program files/marmalade/7.4/modules/iwnui/h/IwNUITabBar.h'
p1433
(lp1434
I1
ag1402
asS'c:/program files/marmalade/7.4/modules/iwnui/h/IwNUIElementContainer.h'
p1435
(lp1436
I1
ag1402
asS'c:/program files/marmalade/7.4/modules/iwnui/iwnui.mkf'
p1437
(lp1438
I1
a(dp1439
asS'c:/program files/marmalade/7.4/modules/iwnui/h/IwNUI.h'
p1440
(lp1441
I1
ag1402
asS'c:/program files/marmalade/7.4/modules/iwnui/h/IwNUITabBarItem.h'
p1442
(lp1443
I1
ag1402
asS'c:/program files/marmalade/7.4/modules/iwnui/h/IwNUIWindow.h'
p1444
(lp1445
I1
ag1402
asS'c:/program files/marmalade/7.4/modules/iwnui/h/IwNUIApp.h'
p1446
(lp1447
I1
ag1402
asS'c:/program files/marmalade/7.4/modules/iwnui/h/IwNUITable.h'
p1448
(lp1449
I1
ag1402
asS'c:/program files/marmalade/7.4/modules/iwnui/h/IwNUITableItem.h'
p1450
(lp1451
I1
ag1402
asS'c:/program files/marmalade/7.4/modules/iwnui/h/IwNUIActivityIndicator.h'
p1452
(lp1453
I1
ag1402
asS'c:/program files/marmalade/7.4/modules/iwnui/h/IwNUIView.h'
p1454
(lp1455
I1
ag1402
assS'iwresmanager'
p1456
(dp1457
S'c:/program files/marmalade/7.4/modules/iwresmanager/h/IwResHandler.h'
p1458
(lp1459
I1
a(dp1460
asS'c:/program files/marmalade/7.4/modules/iwresmanager/docs/iwresmanager.config.txt'
p1461
(lp1462
I1
ag1460
asS'c:/program files/marmalade/7.4/modules/iwresmanager/h/IwResManagerClass.h'
p1463
(lp1464
I1
ag1460
asS'c:/program files/marmalade/7.4/modules/iwresmanager/h/IwResGroup.h'
p1465
(lp1466
I1
ag1460
asS'c:/program files/marmalade/7.4/modules/iwresmanager/h/IwResManager.h'
p1467
(lp1468
I1
ag1460
asS'c:/program files/marmalade/7.4/modules/iwresmanager/h/IwResHandlerITX.h'
p1469
(lp1470
I1
ag1460
asS'c:/program files/marmalade/7.4/modules/iwresmanager/h/IwResSerialise.h'
p1471
(lp1472
I1
ag1460
asS'c:/program files/marmalade/7.4/modules/iwresmanager/h/IwResHandlerGROUP.h'
p1473
(lp1474
I1
ag1460
asS'c:/program files/marmalade/7.4/modules/iwresmanager/h/IwResHandlerImage.h'
p1475
(lp1476
I1
ag1460
asS'c:/program files/marmalade/7.4/modules/iwresmanager/iwresmanager.mkf'
p1477
(lp1478
I1
a(dp1479
assS'iwutil'
p1480
(dp1481
S'c:/program files/marmalade/7.4/modules/iwutil/h/IwList.h'
p1482
(lp1483
I1
a(dp1484
asS'c:/program files/marmalade/7.4/modules/iwutil/h/IwMemory.h'
p1485
(lp1486
I1
ag1484
asS'c:/program files/marmalade/7.4/modules/iwutil/h/IwVariableBitField.h'
p1487
(lp1488
I1
ag1484
asS'c:/program files/marmalade/7.4/modules/iwutil/h/IwSerialise.h'
p1489
(lp1490
I1
ag1484
asS'c:/program files/marmalade/7.4/modules/iwutil/h/IwTypes.h'
p1491
(lp1492
I1
ag1484
asS'c:/program files/marmalade/7.4/modules/iwutil/h/IwAllocator.h'
p1493
(lp1494
I1
ag1484
asS'c:/program files/marmalade/7.4/modules/iwutil/h/IwTextParseable.h'
p1495
(lp1496
I1
ag1484
asS'c:/program files/marmalade/7.4/modules/iwutil/h/IwResource.h'
p1497
(lp1498
I1
ag1484
asS'c:/program files/marmalade/7.4/modules/iwutil/h/IwCore.h'
p1499
(lp1500
I1
ag1484
asS'c:/program files/marmalade/7.4/modules/iwutil/h/IwUtilInitTerm.h'
p1501
(lp1502
I1
ag1484
asS'c:/program files/marmalade/7.4/modules/iwutil/h/IwHashString.h'
p1503
(lp1504
I1
ag1484
asS'c:/program files/marmalade/7.4/modules/iwutil/h/IwAutoFile.h'
p1505
(lp1506
I1
ag1484
asS'c:/program files/marmalade/7.4/modules/iwutil/h/IwOptimiseSpeed.h'
p1507
(lp1508
I1
ag1484
asS'c:/program files/marmalade/7.4/modules/iwutil/h/IwManaged.h'
p1509
(lp1510
I1
ag1484
asS'c:/program files/marmalade/7.4/modules/iwutil/h/IwImage.h'
p1511
(lp1512
I1
ag1484
asS'c:/program files/marmalade/7.4/modules/iwutil/h/IwCopyingPtr.h'
p1513
(lp1514
I1
ag1484
asS'c:/program files/marmalade/7.4/modules/iwutil/h/IwUncopyable.h'
p1515
(lp1516
I1
ag1484
asS'c:/program files/marmalade/7.4/modules/iwutil/h/IwDivTable.h'
p1517
(lp1518
I1
ag1484
asS'c:/program files/marmalade/7.4/modules/iwutil/h/IwString.h'
p1519
(lp1520
I1
ag1484
asS'c:/program files/marmalade/7.4/modules/iwutil/h/IwClassFactory.h'
p1521
(lp1522
I1
ag1484
asS'c:/program files/marmalade/7.4/modules/iwutil/h/IwDivide.h'
p1523
(lp1524
I1
ag1484
asS'c:/program files/marmalade/7.4/modules/iwutil/h/IwTextParser.h'
p1525
(lp1526
I1
ag1484
asS'c:/program files/marmalade/7.4/modules/iwutil/h/IwRuntime.h'
p1527
(lp1528
I1
ag1484
asS'c:/program files/marmalade/7.4/modules/iwutil/docs/iwutil.config.txt'
p1529
(lp1530
I1
ag1484
asS'c:/program files/marmalade/7.4/modules/iwutil/h/IwChar.h'
p1531
(lp1532
I1
ag1484
asS'c:/program files/marmalade/7.4/modules/iwutil/h/IwUtil.h'
p1533
(lp1534
I1
ag1484
asS'c:/program files/marmalade/7.4/modules/iwutil/h/IwFile.h'
p1535
(lp1536
I1
ag1484
asS'c:/program files/marmalade/7.4/modules/iwutil/h/IwPath.h'
p1537
(lp1538
I1
ag1484
asS'c:/program files/marmalade/7.4/modules/iwutil/h/IwArray.h'
p1539
(lp1540
I1
ag1484
asS'c:/program files/marmalade/7.4/modules/iwutil/h/IwUTF8.h'
p1541
(lp1542
I1
ag1484
asS'c:/program files/marmalade/7.4/modules/iwutil/h/IwMemBucketHelpers.h'
p1543
(lp1544
I1
ag1484
asS'c:/program files/marmalade/7.4/modules/iwutil/h/IwEvent.h'
p1545
(lp1546
I1
ag1484
asS'c:/program files/marmalade/7.4/modules/iwutil/h/IwMath.h'
p1547
(lp1548
I1
ag1484
asS'c:/program files/marmalade/7.4/modules/iwutil/h/IwFibre.h'
p1549
(lp1550
I1
ag1484
asS'c:/program files/marmalade/7.4/modules/iwutil/iwutil.mkf'
p1551
(lp1552
I1
a(dp1553
asS'c:/program files/marmalade/7.4/modules/iwutil/h/IwSingleton.h'
p1554
(lp1555
I1
ag1484
asS'c:/program files/marmalade/7.4/modules/iwutil/h/IwProfileMenu.h'
p1556
(lp1557
I1
ag1484
asS'c:/program files/marmalade/7.4/modules/iwutil/h/IwManagedList.h'
p1558
(lp1559
I1
ag1484
asS'c:/program files/marmalade/7.4/modules/iwutil/h/IwOptimiseThumb.h'
p1560
(lp1561
I1
ag1484
asS'c:/program files/marmalade/7.4/modules/iwutil/h/IwBuffer.h'
p1562
(lp1563
I1
ag1484
asS'c:/program files/marmalade/7.4/modules/iwutil/h/IwTextParserITX.h'
p1564
(lp1565
I1
ag1484
asS'c:/program files/marmalade/7.4/modules/iwutil/h/IwMemManagerDL.h'
p1566
(lp1567
I1
ag1484
asS'c:/program files/marmalade/7.4/modules/iwutil/h/IwOptimiseSize.h'
p1568
(lp1569
I1
ag1484
asS'c:/program files/marmalade/7.4/modules/iwutil/h/IwRandom.h'
p1570
(lp1571
I1
ag1484
asS'c:/program files/marmalade/7.4/modules/iwutil/h/IwMemBucket.h'
p1572
(lp1573
I1
ag1484
asS'c:/program files/marmalade/7.4/modules/iwutil/h/IwMenu.h'
p1574
(lp1575
I1
ag1484
asS'c:/program files/marmalade/7.4/modules/iwutil/h/IwImageHelper.h'
p1576
(lp1577
I1
ag1484
asS'c:/program files/marmalade/7.4/modules/iwutil/h/IwOptimiseARM.h'
p1578
(lp1579
I1
ag1484
asS'c:/program files/marmalade/7.4/modules/iwutil/h/IwKeymap.h'
p1580
(lp1581
I1
ag1484
asS'c:/program files/marmalade/7.4/modules/iwutil/h/IwDebug.h'
p1582
(lp1583
I1
ag1484
assS'iw2dscenegraphcore'
p1584
(dp1585
S'c:/program files/marmalade/7.4/modules/iw2dscenegraphcore/iw2dscenegraphcore.mkf'
p1586
(lp1587
I1
a(dp1588
asS'c:/program files/marmalade/7.4/modules/iw2dscenegraphcore/source/Iw2DSceneGraphCore.cpp'
p1589
(lp1590
I1
a(dp1591
asS'c:/program files/marmalade/7.4/modules/iw2dscenegraphcore/h/Iw2DSceneGraphCore.h'
p1592
(lp1593
I1
ag1591
assS'iwui'
p1594
(dp1595
S'c:/program files/marmalade/7.4/modules/iwui/h/IwUIButton.h'
p1596
(lp1597
I1
a(dp1598
asS'c:/program files/marmalade/7.4/modules/iwui/h/IwUIFuncs.h'
p1599
(lp1600
I1
ag1598
asS'c:/program files/marmalade/7.4/modules/iwui/h/IwUILayout.h'
p1601
(lp1602
I1
ag1598
asS'c:/program files/marmalade/7.4/modules/iwui/h/IwUIProgressBar.h'
p1603
(lp1604
I1
ag1598
asS'c:/program files/marmalade/7.4/modules/iwui/h/IwUILayoutVertical.h'
p1605
(lp1606
I1
ag1598
asS'c:/program files/marmalade/7.4/modules/iwui/h/IwPropertyMemory.h'
p1607
(lp1608
I1
ag1598
asS'c:/program files/marmalade/7.4/modules/iwui/h/IwUIAnimManager.h'
p1609
(lp1610
I1
ag1598
asS'c:/program files/marmalade/7.4/modules/iwui/h/IwUIPickerWheel.h'
p1611
(lp1612
I1
ag1598
asS'c:/program files/marmalade/7.4/modules/iwui/h/IwUIView.h'
p1613
(lp1614
I1
ag1598
asS'c:/program files/marmalade/7.4/modules/iwui/h/IwUISoftKeyboard.h'
p1615
(lp1616
I1
ag1598
asS'c:/program files/marmalade/7.4/modules/iwui/h/IwPropertyDefine.h'
p1617
(lp1618
I1
ag1598
asS'c:/program files/marmalade/7.4/modules/iwui/h/IwUIAnimator.h'
p1619
(lp1620
I1
ag1598
asS'c:/program files/marmalade/7.4/modules/iwui/h/IwUIRadioButton.h'
p1621
(lp1622
I1
ag1598
asS'c:/program files/marmalade/7.4/modules/iwui/h/IwUIAlignment.h'
p1623
(lp1624
I1
ag1598
asS'c:/program files/marmalade/7.4/modules/iwui/h/IwUIDrawable.h'
p1625
(lp1626
I1
ag1598
asS'c:/program files/marmalade/7.4/modules/iwui/h/IwUIStyleManager.h'
p1627
(lp1628
I1
ag1598
asS'c:/program files/marmalade/7.4/modules/iwui/h/IwUI.h'
p1629
(lp1630
I1
ag1598
asS'c:/program files/marmalade/7.4/modules/iwui/h/IwUITextField.h'
p1631
(lp1632
I1
ag1598
asS'c:/program files/marmalade/7.4/modules/iwui/h/IwUIMat.h'
p1633
(lp1634
I1
ag1598
asS'c:/program files/marmalade/7.4/modules/iwui/h/IwUITextInput.h'
p1635
(lp1636
I1
ag1598
asS'c:/program files/marmalade/7.4/modules/iwui/h/IwUIElementSignal.h'
p1637
(lp1638
I1
ag1598
asS'c:/program files/marmalade/7.4/modules/iwui/h/IwUIStyle.h'
p1639
(lp1640
I1
ag1598
asS'c:/program files/marmalade/7.4/modules/iwui/h/IwUIDrawableImage.h'
p1641
(lp1642
I1
ag1598
asS'c:/program files/marmalade/7.4/modules/iwui/h/IwUIElementPtr.h'
p1643
(lp1644
I1
ag1598
asS'c:/program files/marmalade/7.4/modules/iwui/h/IwPropertySet.h'
p1645
(lp1646
I1
ag1598
asS'c:/program files/marmalade/7.4/modules/iwui/h/IwUIFocusHandlerTab.h'
p1647
(lp1648
I1
ag1598
asS'c:/program files/marmalade/7.4/modules/iwui/h/IwUIEventHandler.h'
p1649
(lp1650
I1
ag1598
asS'c:/program files/marmalade/7.4/modules/iwui/h/IwUIDrawableBorder.h'
p1651
(lp1652
I1
ag1598
asS'c:/program files/marmalade/7.4/modules/iwui/h/IwUITableViewItemSource.h'
p1653
(lp1654
I1
ag1598
asS'c:/program files/marmalade/7.4/modules/iwui/h/IwUIEvent.h'
p1655
(lp1656
I1
ag1598
asS'c:/program files/marmalade/7.4/modules/iwui/h/IwUITableView.h'
p1657
(lp1658
I1
ag1598
asS'c:/program files/marmalade/7.4/modules/iwui/h/IwPropertyMap.h'
p1659
(lp1660
I1
ag1598
asS'c:/program files/marmalade/7.4/modules/iwui/h/IwTextDecomposer.h'
p1661
(lp1662
I1
ag1598
asS'c:/program files/marmalade/7.4/modules/iwui/h/IwPropertyDataType.h'
p1663
(lp1664
I1
ag1598
asS'c:/program files/marmalade/7.4/modules/iwui/h/IwUILayoutItemContainer.h'
p1665
(lp1666
I1
ag1598
asS'c:/program files/marmalade/7.4/modules/iwui/h/IwUIAtlas.h'
p1667
(lp1668
I1
ag1598
asS'c:/program files/marmalade/7.4/modules/iwui/h/IwUISoftKeyPosition.h'
p1669
(lp1670
I1
ag1598
asS'c:/program files/marmalade/7.4/modules/iwui/h/IwUIController.h'
p1671
(lp1672
I1
ag1598
asS'c:/program files/marmalade/7.4/modules/iwui/h/IwUIDelegate.h'
p1673
(lp1674
I1
ag1598
asS'c:/program files/marmalade/7.4/modules/iwui/docs/iwui_public.defines.txt'
p1675
(lp1676
I1
ag1598
asS'c:/program files/marmalade/7.4/modules/iwui/h/IwUISoftKeyBalloon.h'
p1677
(lp1678
I1
ag1598
asS'c:/program files/marmalade/7.4/modules/iwui/h/IwUISingleton.h'
p1679
(lp1680
I1
ag1598
asS'c:/program files/marmalade/7.4/modules/iwui/h/IwUIRect.h'
p1681
(lp1682
I1
ag1598
asS'c:/program files/marmalade/7.4/modules/iwui/h/IwUIPickerView.h'
p1683
(lp1684
I1
ag1598
asS'c:/program files/marmalade/7.4/modules/iwui/h/IwUITableViewItem.h'
p1685
(lp1686
I1
ag1598
asS'c:/program files/marmalade/7.4/modules/iwui/h/IwUIAlertDialog.h'
p1687
(lp1688
I1
ag1598
asS'c:/program files/marmalade/7.4/modules/iwui/h/IwPropertySetFuncs.h'
p1689
(lp1690
I1
ag1598
asS'c:/program files/marmalade/7.4/modules/iwui/h/IwUIEventHandlerSlot.h'
p1691
(lp1692
I1
ag1598
asS'c:/program files/marmalade/7.4/modules/iwui/h/IwUICheckbox.h'
p1693
(lp1694
I1
ag1598
asS'c:/program files/marmalade/7.4/modules/iwui/h/IwUILayoutHorizontal.h'
p1695
(lp1696
I1
ag1598
asS'c:/program files/marmalade/7.4/modules/iwui/h/IwUIFocusHandler.h'
p1697
(lp1698
I1
ag1598
asS'c:/program files/marmalade/7.4/modules/iwui/h/IwPropertyList.h'
p1699
(lp1700
I1
ag1598
asS'c:/program files/marmalade/7.4/modules/iwui/h/IwUILayoutPolicy.h'
p1701
(lp1702
I1
ag1598
asS'c:/program files/marmalade/7.4/modules/iwui/h/IwPropertyBinding.h'
p1703
(lp1704
I1
ag1598
asS'c:/program files/marmalade/7.4/modules/iwui/h/IwUILabel.h'
p1705
(lp1706
I1
ag1598
asS'c:/program files/marmalade/7.4/modules/iwui/h/IwUIDebug.h'
p1707
(lp1708
I1
ag1598
asS'c:/program files/marmalade/7.4/modules/iwui/h/IwUISlider.h'
p1709
(lp1710
I1
ag1598
asS'c:/program files/marmalade/7.4/modules/iwui/h/IwUIPropertySet.h'
p1711
(lp1712
I1
ag1598
asS'c:/program files/marmalade/7.4/modules/iwui/h/IwPropertyData.h'
p1713
(lp1714
I1
ag1598
asS'c:/program files/marmalade/7.4/modules/iwui/h/IwUILayoutSpacer.h'
p1715
(lp1716
I1
ag1598
asS'c:/program files/marmalade/7.4/modules/iwui/h/IwUIAnimation.h'
p1717
(lp1718
I1
ag1598
asS'c:/program files/marmalade/7.4/modules/iwui/h/IwUIScrollableView.h'
p1719
(lp1720
I1
ag1598
asS'c:/program files/marmalade/7.4/modules/iwui/h/IwPropertyBase.h'
p1721
(lp1722
I1
ag1598
asS'c:/program files/marmalade/7.4/modules/iwui/h/IwUITabBar.h'
p1723
(lp1724
I1
ag1598
asS'c:/program files/marmalade/7.4/modules/iwui/h/IwUILayoutGrid.h'
p1725
(lp1726
I1
ag1598
asS'c:/program files/marmalade/7.4/modules/iwui/h/IwUIMemory.h'
p1727
(lp1728
I1
ag1598
asS'c:/program files/marmalade/7.4/modules/iwui/h/IwUIElementPropertyBinding.h'
p1729
(lp1730
I1
ag1598
asS'c:/program files/marmalade/7.4/modules/iwui/h/IwDecomposable.h'
p1731
(lp1732
I1
ag1598
asS'c:/program files/marmalade/7.4/modules/iwui/h/IwUIHoldingPtr.h'
p1733
(lp1734
I1
ag1598
asS'c:/program files/marmalade/7.4/modules/iwui/h/IwUIGraphics.h'
p1735
(lp1736
I1
ag1598
asS'c:/program files/marmalade/7.4/modules/iwui/h/IwUILayoutForm.h'
p1737
(lp1738
I1
ag1598
asS'c:/program files/marmalade/7.4/modules/iwui/h/IwUIElementEventHandler.h'
p1739
(lp1740
I1
ag1598
asS'c:/program files/marmalade/7.4/modules/iwui/h/IwUIFocusHandler2D.h'
p1741
(lp1742
I1
ag1598
asS'c:/program files/marmalade/7.4/modules/iwui/h/IwUIStylesheet.h'
p1743
(lp1744
I1
ag1598
asS'c:/program files/marmalade/7.4/modules/iwui/iwui.mkf'
p1745
(lp1746
I1
a(dp1747
asS'c:/program files/marmalade/7.4/modules/iwui/h/IwUIDrawableText.h'
p1748
(lp1749
I1
ag1598
asS'c:/program files/marmalade/7.4/modules/iwui/h/IwUIVisitor.h'
p1750
(lp1751
I1
ag1598
asS'c:/program files/marmalade/7.4/modules/iwui/docs/iwui.config.txt'
p1752
(lp1753
I1
ag1598
asS'c:/program files/marmalade/7.4/modules/iwui/h/IwProperty.h'
p1754
(lp1755
I1
ag1598
asS'c:/program files/marmalade/7.4/modules/iwui/h/IwUILayoutItem.h'
p1756
(lp1757
I1
ag1598
asS'c:/program files/marmalade/7.4/modules/iwui/h/IwUIPickerViewItemSource.h'
p1758
(lp1759
I1
ag1598
asS'c:/program files/marmalade/7.4/modules/iwui/h/IwUIColour.h'
p1760
(lp1761
I1
ag1598
asS'c:/program files/marmalade/7.4/modules/iwui/h/IwUIImage.h'
p1762
(lp1763
I1
ag1598
asS'c:/program files/marmalade/7.4/modules/iwui/h/IwUIAnimData.h'
p1764
(lp1765
I1
ag1598
asS'c:/program files/marmalade/7.4/modules/iwui/h/IwUIElementUtil.h'
p1766
(lp1767
I1
ag1598
asS'c:/program files/marmalade/7.4/modules/iwui/h/IwUIElementItem.h'
p1768
(lp1769
I1
ag1598
asS'c:/program files/marmalade/7.4/modules/iwui/h/IwUIElement.h'
p1770
(lp1771
I1
ag1598
asS'c:/program files/marmalade/7.4/modules/iwui/h/IwUISoftKey.h'
p1772
(lp1773
I1
ag1598
asS'c:/program files/marmalade/7.4/modules/iwui/h/IwPropertyString.h'
p1774
(lp1775
I1
ag1598
assS'iwgx'
p1776
(dp1777
S'c:/program files/marmalade/7.4/modules/iwgx/h/IwGxTransformSW.h'
p1778
(lp1779
I1
a(dp1780
asS'c:/program files/marmalade/7.4/modules/iwgx/h/IwFColour.h'
p1781
(lp1782
I1
ag1780
asS'c:/program files/marmalade/7.4/modules/iwgx/h/IwColour.h'
p1783
(lp1784
I1
ag1780
asS'c:/program files/marmalade/7.4/modules/iwgx/h/IwGxTypes.h'
p1785
(lp1786
I1
ag1780
asS'c:/program files/marmalade/7.4/modules/iwgx/h/IwClip.inl'
p1787
(lp1788
I1
ag1780
asS'c:/program files/marmalade/7.4/modules/iwgx/h/IwGxSurface.h'
p1789
(lp1790
I1
ag1780
asS'c:/program files/marmalade/7.4/modules/iwgx/h/IwGxError.h'
p1791
(lp1792
I1
ag1780
asS'c:/program files/marmalade/7.4/modules/iwgx/h/IwTexture.h'
p1793
(lp1794
I1
ag1780
asS'c:/program files/marmalade/7.4/modules/iwgx/h/IwGxPrint.h'
p1795
(lp1796
I1
ag1780
asS'c:/program files/marmalade/7.4/modules/iwgx/h/IwResHandlerMTL.h'
p1797
(lp1798
I1
ag1780
asS'c:/program files/marmalade/7.4/modules/iwgx/h/IwDebugPrim.h'
p1799
(lp1800
I1
ag1780
asS'c:/program files/marmalade/7.4/modules/iwgx/docs/iwgx.config.txt'
p1801
(lp1802
I1
ag1780
asS'c:/program files/marmalade/7.4/modules/iwgx/h/IwClip.h'
p1803
(lp1804
I1
ag1780
asS'c:/program files/marmalade/7.4/modules/iwgx/h/IwMaterial.h'
p1805
(lp1806
I1
ag1780
asS'c:/program files/marmalade/7.4/modules/iwgx/iwgx.mkf'
p1807
(lp1808
I1
a(dp1809
asS'c:/program files/marmalade/7.4/modules/iwgx/h/IwGxShaderTechnique.h'
p1810
(lp1811
I1
ag1780
asS'c:/program files/marmalade/7.4/modules/iwgx/h/IwGxStream.h'
p1812
(lp1813
I1
ag1780
asS'c:/program files/marmalade/7.4/modules/iwgx/h/IwGxState.h'
p1814
(lp1815
I1
ag1780
asS'c:/program files/marmalade/7.4/modules/iwgx/docs/iwgx_public.defines.txt'
p1816
(lp1817
I1
ag1780
asS'c:/program files/marmalade/7.4/modules/iwgx/h/IwGxDebug.h'
p1818
(lp1819
I1
ag1780
asS'c:/program files/marmalade/7.4/modules/iwgx/h/IwMatAnim.h'
p1820
(lp1821
I1
ag1780
asS'c:/program files/marmalade/7.4/modules/iwgx/h/IwGxMetrics.h'
p1822
(lp1823
I1
ag1780
asS'c:/program files/marmalade/7.4/modules/iwgx/h/IwGx.h'
p1824
(lp1825
I1
ag1780
asS'c:/program files/marmalade/7.4/modules/iwgx/h/IwTPage.h'
p1826
(lp1827
I1
ag1780
asS'c:/program files/marmalade/7.4/modules/iwgx/h/IwGxFuncTable.h'
p1828
(lp1829
I1
ag1780
asssS'd:/Git/Year2/fga2.gt2/SprayAndPray/Trackpad.h'
p1830
(lp1831
I1
ag1103
asS'd:/Git/Year2/fga2.gt2/SprayAndPray/AudioManager.cpp'
p1832
(lp1833
I1
ag1103
asS'd:/Git/Year2/fga2.gt2/SprayAndPray/Player.h'
p1834
(lp1835
I1
ag1103
asS'd:/Git/Year2/fga2.gt2/SprayAndPray/GameView.cpp'
p1836
(lp1837
I1
ag1103
asS'd:/Git/Year2/fga2.gt2/SprayAndPray/Bullet.h'
p1838
(lp1839
I1
ag1103
asS'd:/Git/Year2/fga2.gt2/SprayAndPray/GameSprite.h'
p1840
(lp1841
I1
ag1103
asS'Extensions'
p1842
(dp1843
S'PVRTexTool'
p1844
(dp1845
S'interface'
p1846
(dp1847
S'c:/program files/marmalade/7.4/extensions/pvrtextool/interface/PVRTexTool.defines.txt'
p1848
(lp1849
I1
a(dp1850
asS'c:/program files/marmalade/7.4/extensions/pvrtextool/interface/PVRTexTool_interface.cpp'
p1851
(lp1852
I1
ag1850
assS'c:/program files/marmalade/7.4/extensions/pvrtextool/h/PVRTexTool.h'
p1853
(lp1854
I1
ag1850
asS'c:/program files/marmalade/7.4/extensions/pvrtextool/pvrtextool.mkf'
p1855
(lp1856
I1
a(dp1857
assS's3eNUI'
p1858
(dp1859
g1110
(dp1860
S'c:/program files/marmalade/7.4/extensions/s3enui/h/IwNUIWeakPtr.h'
p1861
(lp1862
I1
a(dp1863
asS'c:/program files/marmalade/7.4/extensions/s3enui/h/IwNUIAttributes_internal.h'
p1864
(lp1865
I1
ag1863
asS'c:/program files/marmalade/7.4/extensions/s3enui/h/IwNUIEventHandler.h'
p1866
(lp1867
I1
ag1863
asS'c:/program files/marmalade/7.4/extensions/s3enui/h/IwNUIHelpers.h'
p1868
(lp1869
I1
ag1863
asS'c:/program files/marmalade/7.4/extensions/s3enui/h/IwNUIAttributes.h'
p1870
(lp1871
I1
ag1863
asS'c:/program files/marmalade/7.4/extensions/s3enui/h/IwNUIBase.h'
p1872
(lp1873
I1
ag1863
asS'c:/program files/marmalade/7.4/extensions/s3enui/h/IwNUIDataConverter.h'
p1874
(lp1875
I1
ag1863
asS'c:/program files/marmalade/7.4/extensions/s3enui/h/IwNUISharedPtr.h'
p1876
(lp1877
I1
ag1863
asS'c:/program files/marmalade/7.4/extensions/s3enui/h/IwNUIEvent.h'
p1878
(lp1879
I1
ag1863
asS'c:/program files/marmalade/7.4/extensions/s3enui/h/IwNUIDelegate.h'
p1880
(lp1881
I1
ag1863
asS'c:/program files/marmalade/7.4/extensions/s3enui/h/IwNUIForward.h'
p1882
(lp1883
I1
ag1863
asS'c:/program files/marmalade/7.4/extensions/s3enui/h/s3eNUI.h'
p1884
(lp1885
I1
ag1863
assS'c:/program files/marmalade/7.4/extensions/s3enui/s3enui_iwui.mkf'
p1886
(lp1887
I1
a(dp1888
asS'c:/program files/marmalade/7.4/extensions/s3enui/s3enui.mkf'
p1889
(lp1890
I1
a(dp1891
asS'docs'
p1892
(dp1893
S'c:/program files/marmalade/7.4/extensions/s3enui/interface/s3eNUI.defines.txt'
p1894
(lp1895
I1
ag1863
assssS'd:/Git/Year2/fga2.gt2/SprayAndPray/Singleton.h'
p1896
(lp1897
I1
ag1103
asS'd:/Git/Year2/fga2.gt2/SprayAndPray/Checkbox.cpp'
p1898
(lp1899
I1
ag1103
asS'd:/Git/Year2/fga2.gt2/SprayAndPray/Trackpad.cpp'
p1900
(lp1901
I1
ag1103
asS'd:/Git/Year2/fga2.gt2/SprayAndPray/SprayAndPray.cpp'
p1902
(lp1903
I1
ag1103
asS'd:/Git/Year2/fga2.gt2/SprayAndPray/Input.cpp'
p1904
(lp1905
I1
ag1103
asS'(s3e-default)'
p1906
(dp1907
S'c:/program files/marmalade/7.4/s3e/s3e-default.mkf'
p1908
(lp1909
I1
a(dp1910
assS'd:/Git/Year2/fga2.gt2/SprayAndPray/Enemy.h'
p1911
(lp1912
I1
ag1103
asS'd:/Git/Year2/fga2.gt2/SprayAndPray/GuiTexture.cpp'
p1913
(lp1914
I1
ag1103
asS'd:/Git/Year2/fga2.gt2/SprayAndPray/Player.cpp'
p1915
(lp1916
I1
ag1103
asS'd:/Git/Year2/fga2.gt2/SprayAndPray/GameView.h'
p1917
(lp1918
I1
ag1103
asS'd:/Git/Year2/fga2.gt2/SprayAndPray/Background.h'
p1919
(lp1920
I1
ag1103
asS'(iwtween)'
p1921
(dp1922
S'c:/program files/marmalade/7.4/modules/iwtween/iwtween.mkf'
p1923
(lp1924
I1
a(dp1925
asS'c:/program files/marmalade/7.4/modules/iwtween/source/IwTween.cpp'
p1926
(lp1927
I1
a(dp1928
asS'c:/program files/marmalade/7.4/modules/iwtween/h/IwTween.h'
p1929
(lp1930
I1
ag1928
assS'd:/Git/Year2/fga2.gt2/SprayAndPray/Enemy.cpp'
p1931
(lp1932
I1
ag1103
asS'd:/Git/Year2/fga2.gt2/SprayAndPray/AudioManager.h'
p1933
(lp1934
I1
ag1103
asS'd:/Git/Year2/fga2.gt2/SprayAndPray/GameSprite.cpp'
p1935
(lp1936
I1
ag1103
asS'd:/Git/Year2/fga2.gt2/SprayAndPray/Background.cpp'
p1937
(lp1938
I1
ag1103
assS'files'
p1939
(dp1940
S'IwUIMemory.h'
p1941
g313
(cmkb_main
File
p1942
g315
Ntp1943
Rp1944
(dp1945
S'flags'
p1946
g1598
sS'group'
p1947
(lp1948
g1262
ag1594
asg339
g1727
sbsS'iterator'
p1949
g313
(g1942
g315
Ntp1950
Rp1951
(dp1952
g1946
(dp1953
sg1947
(lp1954
S"'Marmalade System (S3E)'"
p1955
aS'stdc headers'
p1956
aS'c++'
p1957
asg339
S'c:/program files/marmalade/7.4/s3e/h/std/c++/iterator'
p1958
sbsS'IwUIScrollableView.h'
p1959
g313
(g1942
g315
Ntp1960
Rp1961
(dp1962
g1946
g1598
sg1947
g1948
sg339
g1719
sbsS'IwGL.h'
p1963
g313
(g1942
g315
Ntp1964
Rp1965
(dp1966
g1946
g1280
sg1947
(lp1967
S"'Marmalade Studio'"
p1968
ag1276
asg339
g1286
sbsS'ctime'
p1969
g313
(g1942
g315
Ntp1970
Rp1971
(dp1972
g1946
g1953
sg1947
g1954
sg339
S'c:/program files/marmalade/7.4/s3e/h/std/c++/ctime'
p1973
sbsS's3e.h'
p1974
g313
(g1942
g315
Ntp1975
Rp1976
(dp1977
g1946
g1953
sg1947
(lp1978
g1955
asg339
S'c:/program files/marmalade/7.4/s3e/h/s3e.h'
p1979
sbsS'errno.h'
p1980
g313
(g1942
g315
Ntp1981
Rp1982
(dp1983
g1946
g1953
sg1947
(lp1984
g1955
aS'stdc headers'
p1985
asg339
S'c:/program files/marmalade/7.4/s3e/h/std/errno.h'
p1986
sbsS'IwSingleton.h'
p1987
g313
(g1942
g315
Ntp1988
Rp1989
(dp1990
g1946
g1484
sg1947
(lp1991
S"'Marmalade Studio'"
p1992
ag1480
asg339
g1554
sbsS's3eImagePicker.h'
p1993
g313
(g1942
g315
Ntp1994
Rp1995
(dp1996
g1946
g1953
sg1947
(lp1997
g1955
aS'Extensions'
p1998
asg339
S'c:/program files/marmalade/7.4/s3e/h/ext/s3eImagePicker.h'
p1999
sbsS'getopt.h'
p2000
g313
(g1942
g315
Ntp2001
Rp2002
(dp2003
g1946
g1953
sg1947
g1984
sg339
S'c:/program files/marmalade/7.4/s3e/h/std/getopt.h'
p2004
sbsS'dlfcn.h'
p2005
g313
(g1942
g315
Ntp2006
Rp2007
(dp2008
g1946
g1953
sg1947
g1984
sg339
S'c:/program files/marmalade/7.4/s3e/h/std/dlfcn.h'
p2009
sbsS'IwNUIDataConverter.h'
p2010
g313
(g1942
g315
Ntp2011
Rp2012
(dp2013
g1946
g1863
sg1947
(lp2014
g1842
ag1858
ag1110
asg339
g1874
sbsS'sched.h'
p2015
g313
(g1942
g315
Ntp2016
Rp2017
(dp2018
g1946
g1953
sg1947
g1984
sg339
S'c:/program files/marmalade/7.4/s3e/h/std/sched.h'
p2019
sbsS's3enui_iwui.mkf'
p2020
g313
(g1942
g315
Ntp2021
Rp2022
(dp2023
g1946
g1888
sg1947
(lp2024
S'Extensions'
p2025
aS's3eNUI'
p2026
asg339
g1886
sbsS'IwGeomFMat2D.h'
p2027
g313
(g1942
g315
Ntp2028
Rp2029
(dp2030
g1946
g1326
sg1947
(lp2031
S"'Marmalade Studio'"
p2032
ag1322
asg339
g1363
sbsS'cassert'
p2033
g313
(g1942
g315
Ntp2034
Rp2035
(dp2036
g1946
g1953
sg1947
g1954
sg339
S'c:/program files/marmalade/7.4/s3e/h/std/c++/cassert'
p2037
sbsS'grp.h'
p2038
g313
(g1942
g315
Ntp2039
Rp2040
(dp2041
g1946
g1953
sg1947
g1984
sg339
S'c:/program files/marmalade/7.4/s3e/h/std/grp.h'
p2042
sbsS'Checkbox.h'
p2043
g313
(g1942
g315
Ntp2044
Rp2045
(dp2046
g1946
g1103
sg1947
(lp2047
sg339
g1256
sbsS'list'
p2048
g313
(g1942
g315
Ntp2049
Rp2050
(dp2051
g1946
g1953
sg1947
g1954
sg339
S'c:/program files/marmalade/7.4/s3e/h/std/c++/list'
p2052
sbsS'IwSoundSpec.cpp'
p2053
g313
(g1942
g315
Ntp2054
Rp2055
(dp2056
g1946
g1175
sg1947
(lp2057
g1171
asg339
g1188
sbsS'IwGeomMat.h.tpl'
p2058
g313
(g1942
g315
Ntp2059
Rp2060
(dp2061
g1946
g1326
sg1947
g2031
sg339
g1324
sbsS'istream'
p2062
g313
(g1942
g315
Ntp2063
Rp2064
(dp2065
g1946
g1953
sg1947
g1954
sg339
S'c:/program files/marmalade/7.4/s3e/h/std/c++/istream'
p2066
sbsS'jpeglib.h'
p2067
g313
(g1942
g315
Ntp2068
Rp2069
(dp2070
g1946
g1127
sg1947
(lp2071
g1122
ag1110
asg339
g1144
sbsS'iw2d_public.defines.txt'
p2072
g313
(g1942
g315
Ntp2073
Rp2074
(dp2075
g1946
g1292
sg1947
(lp2076
S"'Marmalade Studio'"
p2077
ag1288
asg339
g1290
sbsS'iostream.h'
p2078
g313
(g1942
g315
Ntp2079
Rp2080
(dp2081
g1946
g1953
sg1947
g1954
sg339
S'c:/program files/marmalade/7.4/s3e/h/std/c++/iostream.h'
p2082
sbsS'IwSoundADPCM.h'
p2083
g313
(g1942
g315
Ntp2084
Rp2085
(dp2086
g1946
g1175
sg1947
g2057
sg339
g1184
sbsS'string'
p2087
g313
(g1942
g315
Ntp2088
Rp2089
(dp2090
g1946
g1953
sg1947
g1954
sg339
S'c:/program files/marmalade/7.4/s3e/h/std/c++/string'
p2091
sbsS'IwMemory.h'
p2092
g313
(g1942
g315
Ntp2093
Rp2094
(dp2095
g1946
g1484
sg1947
g1991
sg339
g1485
sbsS'IwPropertyMemory.h'
p2096
g313
(g1942
g315
Ntp2097
Rp2098
(dp2099
g1946
g1598
sg1947
g1948
sg339
g1607
sbsS'IwUILayoutPolicy.h'
p2100
g313
(g1942
g315
Ntp2101
Rp2102
(dp2103
g1946
g1598
sg1947
g1948
sg339
g1701
sbsS'IwGeomPlane.h'
p2104
g313
(g1942
g315
Ntp2105
Rp2106
(dp2107
g1946
g1326
sg1947
g2031
sg339
g1361
sbsS'IwNUIButton.h'
p2108
g313
(g1942
g315
Ntp2109
Rp2110
(dp2111
g1946
g1402
sg1947
(lp2112
S"'Marmalade Studio'"
p2113
ag1398
asg339
g1423
sbsS'iomanip'
p2114
g313
(g1942
g315
Ntp2115
Rp2116
(dp2117
g1946
g1953
sg1947
g1954
sg339
S'c:/program files/marmalade/7.4/s3e/h/std/c++/iomanip'
p2118
sbsS'iwgeom.mkf'
p2119
g313
(g1942
g315
Ntp2120
Rp2121
(dp2122
g1946
g1393
sg1947
g2031
sg339
g1391
sbsS'IwGxError.h'
p2123
g313
(g1942
g315
Ntp2124
Rp2125
(dp2126
g1946
g1780
sg1947
(lp2127
S"'Marmalade Studio'"
p2128
ag1776
asg339
g1791
sbsS'stdlib.h'
p2129
g313
(g1942
g315
Ntp2130
Rp2131
(dp2132
g1946
g1953
sg1947
g1984
sg339
S'c:/program files/marmalade/7.4/s3e/h/std/stdlib.h'
p2133
sbsS'IwGeom.h'
p2134
g313
(g1942
g315
Ntp2135
Rp2136
(dp2137
g1946
g1326
sg1947
g2031
sg339
g1371
sbsS'bitset'
p2138
g313
(g1942
g315
Ntp2139
Rp2140
(dp2141
g1946
g1953
sg1947
g1954
sg339
S'c:/program files/marmalade/7.4/s3e/h/std/c++/bitset'
p2142
sbsS'IwGeomVec4.h'
p2143
g313
(g1942
g315
Ntp2144
Rp2145
(dp2146
g1946
g1326
sg1947
g2031
sg339
g1381
sbsS'dir.h'
p2147
g313
(g1942
g315
Ntp2148
Rp2149
(dp2150
g1946
g1953
sg1947
(lp2151
g1955
aS'stdc headers'
p2152
aS'sys'
p2153
asg339
S'c:/program files/marmalade/7.4/s3e/h/std/sys/dir.h'
p2154
sbsS'locale.h'
p2155
g313
(g1942
g315
Ntp2156
Rp2157
(dp2158
g1946
g1953
sg1947
g1984
sg339
S'c:/program files/marmalade/7.4/s3e/h/std/locale.h'
p2159
sbsS'IwNUIEventHandler.h'
p2160
g313
(g1942
g315
Ntp2161
Rp2162
(dp2163
g1946
g1863
sg1947
g2014
sg339
g1866
sbsS'vector'
p2164
g313
(g1942
g315
Ntp2165
Rp2166
(dp2167
g1946
g1953
sg1947
g1954
sg339
S'c:/program files/marmalade/7.4/s3e/h/std/c++/vector'
p2168
sbsS'IwManaged.h'
p2169
g313
(g1942
g315
Ntp2170
Rp2171
(dp2172
g1946
g1484
sg1947
g1991
sg339
g1509
sbsS'IwUIDrawableImage.h'
p2173
g313
(g1942
g315
Ntp2174
Rp2175
(dp2176
g1946
g1598
sg1947
g1948
sg339
g1641
sbsS's3eCompass.h'
p2177
g313
(g1942
g315
Ntp2178
Rp2179
(dp2180
g1946
g1953
sg1947
g1978
sg339
S'c:/program files/marmalade/7.4/s3e/h/s3eCompass.h'
p2181
sbsS'cderror.h'
p2182
g313
(g1942
g315
Ntp2183
Rp2184
(dp2185
g1946
g1127
sg1947
g2071
sg339
g1134
sbsS'definitions.cpp'
p2186
g313
(g1942
g315
Ntp2187
Rp2188
(dp2189
g1946
g1103
sg1947
g2047
sg339
g1101
sbsS's3eVibra.h'
p2190
g313
(g1942
g315
Ntp2191
Rp2192
(dp2193
g1946
g1953
sg1947
g1978
sg339
S'c:/program files/marmalade/7.4/s3e/h/s3eVibra.h'
p2194
sbsS'jversion.h'
p2195
g313
(g1942
g315
Ntp2196
Rp2197
(dp2198
g1946
g1127
sg1947
g2071
sg339
g1128
sbsS'fnmatch.h'
p2199
g313
(g1942
g315
Ntp2200
Rp2201
(dp2202
g1946
g1953
sg1947
g1984
sg339
S'c:/program files/marmalade/7.4/s3e/h/std/fnmatch.h'
p2203
sbsS'iostream'
p2204
g313
(g1942
g315
Ntp2205
Rp2206
(dp2207
g1946
g1953
sg1947
g1954
sg339
S'c:/program files/marmalade/7.4/s3e/h/std/c++/iostream'
p2208
sbsS'IwGxState.h'
p2209
g313
(g1942
g315
Ntp2210
Rp2211
(dp2212
g1946
g1780
sg1947
g2127
sg339
g1814
sbsS's3eAudio.h'
p2213
g313
(g1942
g315
Ntp2214
Rp2215
(dp2216
g1946
g1953
sg1947
g1978
sg339
S'c:/program files/marmalade/7.4/s3e/h/s3eAudio.h'
p2217
sbsS's3eEMail.h'
p2218
g313
(g1942
g315
Ntp2219
Rp2220
(dp2221
g1946
g1953
sg1947
g1997
sg339
S'c:/program files/marmalade/7.4/s3e/h/ext/s3eEMail.h'
p2222
sbsS'IwUIElement.h'
p2223
g313
(g1942
g315
Ntp2224
Rp2225
(dp2226
g1946
g1598
sg1947
g1948
sg339
g1770
sbsS'IwNUINavigationBar.h'
p2227
g313
(g1942
g315
Ntp2228
Rp2229
(dp2230
g1946
g1402
sg1947
g2112
sg339
g1403
sbsS'IwNUIAttributes.h'
p2231
g313
(g1942
g315
Ntp2232
Rp2233
(dp2234
g1946
g1863
sg1947
g2014
sg339
g1870
sbsS's3eSurface.h'
p2235
g313
(g1942
g315
Ntp2236
Rp2237
(dp2238
g1946
g1953
sg1947
g1978
sg339
S'c:/program files/marmalade/7.4/s3e/h/s3eSurface.h'
p2239
sbsS'new'
p2240
g313
(g1942
g315
Ntp2241
Rp2242
(dp2243
g1946
g1953
sg1947
g1954
sg339
S'c:/program files/marmalade/7.4/s3e/h/std/c++/new'
p2244
sbsS'IwNUISharedPtr.h'
p2245
g313
(g1942
g315
Ntp2246
Rp2247
(dp2248
g1946
g1863
sg1947
g2014
sg339
g1876
sbsS's3eWindow.h'
p2249
g313
(g1942
g315
Ntp2250
Rp2251
(dp2252
g1946
g1953
sg1947
g1997
sg339
S'c:/program files/marmalade/7.4/s3e/h/ext/s3eWindow.h'
p2253
sbsS'IwBuffer.h'
p2254
g313
(g1942
g315
Ntp2255
Rp2256
(dp2257
g1946
g1484
sg1947
g1991
sg339
g1562
sbsS'IwUIRect.h'
p2258
g313
(g1942
g315
Ntp2259
Rp2260
(dp2261
g1946
g1598
sg1947
g1948
sg339
g1681
sbsS'stdio_streambuf'
p2262
g313
(g1942
g315
Ntp2263
Rp2264
(dp2265
g1946
g1953
sg1947
g1954
sg339
S'c:/program files/marmalade/7.4/s3e/h/std/c++/stdio_streambuf'
p2266
sbsS'IwGeomQuat.h.tpl'
p2267
g313
(g1942
g315
Ntp2268
Rp2269
(dp2270
g1946
g1326
sg1947
g2031
sg339
g1337
sbsS'IwUISlider.h'
p2271
g313
(g1942
g315
Ntp2272
Rp2273
(dp2274
g1946
g1598
sg1947
g1948
sg339
g1709
sbsS'IwGxTransformSW.h'
p2275
g313
(g1942
g315
Ntp2276
Rp2277
(dp2278
g1946
g1780
sg1947
g2127
sg339
g1778
sbsS'unistd.h'
p2279
g313
(g1942
g315
Ntp2280
Rp2281
(dp2282
g1946
g1953
sg1947
g1984
sg339
S'c:/program files/marmalade/7.4/s3e/h/std/unistd.h'
p2283
sbsS'iwgxfont.config.txt'
p2284
g313
(g1942
g315
Ntp2285
Rp2286
(dp2287
g1946
g1304
sg1947
(lp2288
S"'Marmalade Studio'"
p2289
ag1300
asg339
g1320
sbsS'gl2platform.h'
p2290
g313
(g1942
g315
Ntp2291
Rp2292
(dp2293
g1946
g1953
sg1947
(lp2294
g1955
aS'GL'
p2295
aS'GLES 2.0'
p2296
asg339
S'c:/program files/marmalade/7.4/s3e/h/GLES2/gl2platform.h'
p2297
sbsS'IwResManagerClass.h'
p2298
g313
(g1942
g315
Ntp2299
Rp2300
(dp2301
g1946
g1460
sg1947
(lp2302
S"'Marmalade Studio'"
p2303
ag1456
asg339
g1463
sbsS'IwUI.h'
p2304
g313
(g1942
g315
Ntp2305
Rp2306
(dp2307
g1946
g1598
sg1947
g1948
sg339
g1629
sbsS'IwNUITableItem.h'
p2308
g313
(g1942
g315
Ntp2309
Rp2310
(dp2311
g1946
g1402
sg1947
g2112
sg339
g1450
sbsS'queue'
p2312
g313
(g1942
g315
Ntp2313
Rp2314
(dp2315
g1946
g1953
sg1947
g1954
sg339
S'c:/program files/marmalade/7.4/s3e/h/std/c++/queue'
p2316
sbsS'time_1.h'
p2317
g313
(g1942
g315
Ntp2318
Rp2319
(dp2320
g1946
g1953
sg1947
g2151
sg339
S'c:/program files/marmalade/7.4/s3e/h/std/sys/time.h'
p2321
sbsS'IwSoundPCM.h'
p2322
g313
(g1942
g315
Ntp2323
Rp2324
(dp2325
g1946
g1175
sg1947
g2057
sg339
g1186
sbsS'Iw2D.h'
p2326
g313
(g1942
g315
Ntp2327
Rp2328
(dp2329
g1946
g1292
sg1947
g2076
sg339
g1293
sbsS'Input.cpp'
p2330
g313
(g1942
g315
Ntp2331
Rp2332
(dp2333
g1946
g1103
sg1947
g2047
sg339
g1904
sbsS'IwGeomVec2.h'
p2334
g313
(g1942
g315
Ntp2335
Rp2336
(dp2337
g1946
g1326
sg1947
g2031
sg339
g1394
sbsS'sendfile.h'
p2338
g313
(g1942
g315
Ntp2339
Rp2340
(dp2341
g1946
g1953
sg1947
g2151
sg339
S'c:/program files/marmalade/7.4/s3e/h/std/sys/sendfile.h'
p2342
sbsS'malloc.h'
p2343
g313
(g1942
g315
Ntp2344
Rp2345
(dp2346
g1946
g1953
sg1947
g1984
sg339
S'c:/program files/marmalade/7.4/s3e/h/std/malloc.h'
p2347
sbsS'definitions.h'
p2348
g313
(g1942
g315
Ntp2349
Rp2350
(dp2351
g1946
g1103
sg1947
g2047
sg339
g1227
sbsS'stdarg.h'
p2352
g313
(g1942
g315
Ntp2353
Rp2354
(dp2355
g1946
g1953
sg1947
g1984
sg339
S'c:/program files/marmalade/7.4/s3e/h/std/stdarg.h'
p2356
sbsS'IwUIElementPtr.h'
p2357
g313
(g1942
g315
Ntp2358
Rp2359
(dp2360
g1946
g1598
sg1947
g1948
sg339
g1643
sbsS'IwGeomCore.h'
p2361
g313
(g1942
g315
Ntp2362
Rp2363
(dp2364
g1946
g1326
sg1947
g2031
sg339
g1353
sbsS'Iw2DSceneGraph.h'
p2365
g313
(g1942
g315
Ntp2366
Rp2367
(dp2368
g1946
g1268
sg1947
(lp2369
S"'Marmalade Studio'"
p2370
ag1264
asg339
g1274
sbsS'endian.h'
p2371
g313
(g1942
g315
Ntp2372
Rp2373
(dp2374
g1946
g1953
sg1947
g1984
sg339
S'c:/program files/marmalade/7.4/s3e/h/std/endian.h'
p2375
sbsS'IwProperty.h'
p2376
g313
(g1942
g315
Ntp2377
Rp2378
(dp2379
g1946
g1598
sg1947
g1948
sg339
g1754
sbsS'glob.h'
p2380
g313
(g1942
g315
Ntp2381
Rp2382
(dp2383
g1946
g1953
sg1947
g1984
sg339
S'c:/program files/marmalade/7.4/s3e/h/std/glob.h'
p2384
sbsS'fstream'
p2385
g313
(g1942
g315
Ntp2386
Rp2387
(dp2388
g1946
g1953
sg1947
g1954
sg339
S'c:/program files/marmalade/7.4/s3e/h/std/c++/fstream'
p2389
sbsS'IwNUISliderBar.h'
p2390
g313
(g1942
g315
Ntp2391
Rp2392
(dp2393
g1946
g1402
sg1947
g2112
sg339
g1417
sbsS's3eCamera.h'
p2394
g313
(g1942
g315
Ntp2395
Rp2396
(dp2397
g1946
g1953
sg1947
g1978
sg339
S'c:/program files/marmalade/7.4/s3e/h/s3eCamera.h'
p2398
sbsS'jconfig.h'
p2399
g313
(g1942
g315
Ntp2400
Rp2401
(dp2402
g1946
g1127
sg1947
g2071
sg339
g1142
sbsS'memory'
p2403
g313
(g1942
g315
Ntp2404
Rp2405
(dp2406
g1946
g1953
sg1947
g1954
sg339
S'c:/program files/marmalade/7.4/s3e/h/std/c++/memory'
p2407
sbsS'IwUILayoutVertical.h'
p2408
g313
(g1942
g315
Ntp2409
Rp2410
(dp2411
g1946
g1598
sg1947
g1948
sg339
g1605
sbsS'egl.h'
p2412
g313
(g1942
g315
Ntp2413
Rp2414
(dp2415
g1946
g1953
sg1947
(lp2416
g1955
aS'GL'
p2417
aS'EGL'
p2418
asg339
S'c:/program files/marmalade/7.4/s3e/h/EGL/egl.h'
p2419
sbsS'IwClip.inl'
p2420
g313
(g1942
g315
Ntp2421
Rp2422
(dp2423
g1946
g1780
sg1947
g2127
sg339
g1787
sbsS'IwMemManagerDL.h'
p2424
g313
(g1942
g315
Ntp2425
Rp2426
(dp2427
g1946
g1484
sg1947
g1991
sg339
g1566
sbsS'deque'
p2428
g313
(g1942
g315
Ntp2429
Rp2430
(dp2431
g1946
g1953
sg1947
g1954
sg339
S'c:/program files/marmalade/7.4/s3e/h/std/c++/deque'
p2432
sbsS'IwString.h'
p2433
g313
(g1942
g315
Ntp2434
Rp2435
(dp2436
g1946
g1484
sg1947
g1991
sg339
g1519
sbsS'cwchar'
p2437
g313
(g1942
g315
Ntp2438
Rp2439
(dp2440
g1946
g1953
sg1947
g1954
sg339
S'c:/program files/marmalade/7.4/s3e/h/std/c++/cwchar'
p2441
sbsS'iwui_public.defines.txt'
p2442
g313
(g1942
g315
Ntp2443
Rp2444
(dp2445
g1946
g1598
sg1947
g1948
sg339
g1675
sbsS'iwutil.mkf'
p2446
g313
(g1942
g315
Ntp2447
Rp2448
(dp2449
g1946
g1553
sg1947
g1991
sg339
g1551
sbsS'csignal'
p2450
g313
(g1942
g315
Ntp2451
Rp2452
(dp2453
g1946
g1953
sg1947
g1954
sg339
S'c:/program files/marmalade/7.4/s3e/h/std/c++/csignal'
p2454
sbsS'float.h'
p2455
g313
(g1942
g315
Ntp2456
Rp2457
(dp2458
g1946
g1953
sg1947
g1984
sg339
S'c:/program files/marmalade/7.4/s3e/h/std/float.h'
p2459
sbsS'pthread_alloc'
p2460
g313
(g1942
g315
Ntp2461
Rp2462
(dp2463
g1946
g1953
sg1947
g1954
sg339
S'c:/program files/marmalade/7.4/s3e/h/std/c++/pthread_alloc'
p2464
sbsS'IwGeomFPlane.h'
p2465
g313
(g1942
g315
Ntp2466
Rp2467
(dp2468
g1946
g1326
sg1947
g2031
sg339
g1373
sbsS'IwOptimiseARM.h'
p2469
g313
(g1942
g315
Ntp2470
Rp2471
(dp2472
g1946
g1484
sg1947
g1991
sg339
g1578
sbsS'times.h'
p2473
g313
(g1942
g315
Ntp2474
Rp2475
(dp2476
g1946
g1953
sg1947
g2151
sg339
S'c:/program files/marmalade/7.4/s3e/h/std/sys/times.h'
p2477
sbsS'IwGeomFSphere.h'
p2478
g313
(g1942
g315
Ntp2479
Rp2480
(dp2481
g1946
g1326
sg1947
g2031
sg339
g1389
sbsS'IwUIAnimManager.h'
p2482
g313
(g1942
g315
Ntp2483
Rp2484
(dp2485
g1946
g1598
sg1947
g1948
sg339
g1609
sbsS'GuiElement.cpp'
p2486
g313
(g1942
g315
Ntp2487
Rp2488
(dp2489
g1946
g1103
sg1947
g2047
sg339
g1240
sbsS'IwTypes.h'
p2490
g313
(g1942
g315
Ntp2491
Rp2492
(dp2493
g1946
g1484
sg1947
g1991
sg339
g1491
sbsS'IwNUIWeakPtr.h'
p2494
g313
(g1942
g315
Ntp2495
Rp2496
(dp2497
g1946
g1863
sg1947
g2014
sg339
g1861
sbsS'IwGxMetrics.h'
p2498
g313
(g1942
g315
Ntp2499
Rp2500
(dp2501
g1946
g1780
sg1947
g2127
sg339
g1822
sbsS'IwNUIElement.h'
p2502
g313
(g1942
g315
Ntp2503
Rp2504
(dp2505
g1946
g1402
sg1947
g2112
sg339
g1409
sbsS's3eIOSBackgroundAudio.h'
p2506
g313
(g1942
g315
Ntp2507
Rp2508
(dp2509
g1946
g1953
sg1947
g1997
sg339
S'c:/program files/marmalade/7.4/s3e/h/ext/s3eIOSBackgroundAudio.h'
p2510
sbsS'cerrno'
p2511
g313
(g1942
g315
Ntp2512
Rp2513
(dp2514
g1946
g1953
sg1947
g1954
sg339
S'c:/program files/marmalade/7.4/s3e/h/std/c++/cerrno'
p2515
sbsS'Input.h'
p2516
g313
(g1942
g315
Ntp2517
Rp2518
(dp2519
g1946
g1103
sg1947
g2047
sg339
g1254
sbsS's3eCompression.h'
p2520
g313
(g1942
g315
Ntp2521
Rp2522
(dp2523
g1946
g1953
sg1947
g1978
sg339
S'c:/program files/marmalade/7.4/s3e/h/s3eCompression.h'
p2524
sbsS'langinfo.h'
p2525
g313
(g1942
g315
Ntp2526
Rp2527
(dp2528
g1946
g1953
sg1947
g1984
sg339
S'c:/program files/marmalade/7.4/s3e/h/std/langinfo.h'
p2529
sbsS's3edebugHeap.h'
p2530
g313
(g1942
g315
Ntp2531
Rp2532
(dp2533
g1946
g1953
sg1947
g1997
sg339
S'c:/program files/marmalade/7.4/s3e/h/ext/s3edebugHeap.h'
p2534
sbsS'app.config.txt'
p2535
g313
(g1942
g315
Ntp2536
Rp2537
(dp2538
g1946
(dp2539
sg1947
g4
sg339
S'd:/Git/Year2/fga2.gt2/SprayAndPray/data/app.config.txt'
p2540
sbsS'AirplayVersion.h'
p2541
g313
(g1942
g315
Ntp2542
Rp2543
(dp2544
g1946
g1953
sg1947
g1978
sg339
S'c:/program files/marmalade/7.4/s3e/h/AirplayVersion.h'
p2545
sbsS'gl2extimg.h'
p2546
g313
(g1942
g315
Ntp2547
Rp2548
(dp2549
g1946
g1953
sg1947
g2294
sg339
S'c:/program files/marmalade/7.4/s3e/h/GLES2/gl2extimg.h'
p2550
sbsS'pthread_types.h'
p2551
g313
(g1942
g315
Ntp2552
Rp2553
(dp2554
g1946
g1953
sg1947
g1984
sg339
S'c:/program files/marmalade/7.4/s3e/h/std/pthread_types.h'
p2555
sbsS'IwGeomSqrt.h'
p2556
g313
(g1942
g315
Ntp2557
Rp2558
(dp2559
g1946
g1326
sg1947
g2031
sg339
g1335
sbsS'IwUIGraphics.h'
p2560
g313
(g1942
g315
Ntp2561
Rp2562
(dp2563
g1946
g1598
sg1947
g1948
sg339
g1735
sbsS'tiniconv_int.h'
p2564
g313
(g1942
g315
Ntp2565
Rp2566
(dp2567
g1946
g1161
sg1947
(lp2568
g1157
asg339
g1159
sbsS'IwUIStylesheet.h'
p2569
g313
(g1942
g315
Ntp2570
Rp2571
(dp2572
g1946
g1598
sg1947
g1948
sg339
g1743
sbsS'syslog.h'
p2573
g313
(g1942
g315
Ntp2574
Rp2575
(dp2576
g1946
g1953
sg1947
g1984
sg339
S'c:/program files/marmalade/7.4/s3e/h/std/syslog.h'
p2577
sbsS'IwUILayoutItemContainer.h'
p2578
g313
(g1942
g315
Ntp2579
Rp2580
(dp2581
g1946
g1598
sg1947
g1948
sg339
g1665
sbsS'IwGxFontTypes.h'
p2582
g313
(g1942
g315
Ntp2583
Rp2584
(dp2585
g1946
g1304
sg1947
g2288
sg339
g1302
sbsS'IwGeomFIntersect.h'
p2586
g313
(g1942
g315
Ntp2587
Rp2588
(dp2589
g1946
g1326
sg1947
g2031
sg339
g1341
sbsS'hash_map'
p2590
g313
(g1942
g315
Ntp2591
Rp2592
(dp2593
g1946
g1953
sg1947
g1954
sg339
S'c:/program files/marmalade/7.4/s3e/h/std/c++/hash_map'
p2594
sbsS's3e.mkf'
p2595
g313
(g1942
g315
Ntp2596
Rp2597
(dp2598
g1946
(dp2599
sg1947
g1978
sg339
S'c:/program files/marmalade/7.4/s3e/s3e.mkf'
p2600
sbsS'IwGeomMat2D.h.tpl'
p2601
g313
(g1942
g315
Ntp2602
Rp2603
(dp2604
g1946
g1326
sg1947
g2031
sg339
g1339
sbsS's3eOSReadString.h'
p2605
g313
(g1942
g315
Ntp2606
Rp2607
(dp2608
g1946
g1953
sg1947
g1997
sg339
S'c:/program files/marmalade/7.4/s3e/h/ext/s3eOSReadString.h'
p2609
sbsS'IwTextDecomposer.h'
p2610
g313
(g1942
g315
Ntp2611
Rp2612
(dp2613
g1946
g1598
sg1947
g1948
sg339
g1661
sbsS'Enemy.h'
p2614
g313
(g1942
g315
Ntp2615
Rp2616
(dp2617
g1946
g1103
sg1947
g2047
sg339
g1911
sbsS'CollisionManager.cpp'
p2618
g313
(g1942
g315
Ntp2619
Rp2620
(dp2621
g1946
g1103
sg1947
g2047
sg339
g1244
sbsS'IwSound.h'
p2622
g313
(g1942
g315
Ntp2623
Rp2624
(dp2625
g1946
g1175
sg1947
g2057
sg339
g1176
sbsS'map'
p2626
g313
(g1942
g315
Ntp2627
Rp2628
(dp2629
g1946
g1953
sg1947
g1954
sg339
S'c:/program files/marmalade/7.4/s3e/h/std/c++/map'
p2630
sbsS'iwtween.mkf'
p2631
g313
(g1942
g315
Ntp2632
Rp2633
(dp2634
g1946
g1925
sg1947
(lp2635
g1921
asg339
g1923
sbsS'IwOptimiseSpeed.h'
p2636
g313
(g1942
g315
Ntp2637
Rp2638
(dp2639
g1946
g1484
sg1947
g1991
sg339
g1507
sbsS'ostream'
p2640
g313
(g1942
g315
Ntp2641
Rp2642
(dp2643
g1946
g1953
sg1947
g1954
sg339
S'c:/program files/marmalade/7.4/s3e/h/std/c++/ostream'
p2644
sbsS'msl_string.h'
p2645
g313
(g1942
g315
Ntp2646
Rp2647
(dp2648
g1946
g1953
sg1947
g1954
sg339
S'c:/program files/marmalade/7.4/s3e/h/std/c++/msl_string.h'
p2649
sbsS'IwRandom.h'
p2650
g313
(g1942
g315
Ntp2651
Rp2652
(dp2653
g1946
g1484
sg1947
g1991
sg339
g1570
sbsS'sigcontext.h'
p2654
g313
(g1942
g315
Ntp2655
Rp2656
(dp2657
g1946
g1953
sg1947
g1984
sg339
S'c:/program files/marmalade/7.4/s3e/h/std/sigcontext.h'
p2658
sbsS'select.h'
p2659
g313
(g1942
g315
Ntp2660
Rp2661
(dp2662
g1946
g1953
sg1947
g2151
sg339
S'c:/program files/marmalade/7.4/s3e/h/std/sys/select.h'
p2663
sbsS'IwUILayoutItem.h'
p2664
g313
(g1942
g315
Ntp2665
Rp2666
(dp2667
g1946
g1598
sg1947
g1948
sg339
g1756
sbsS'SprayAndPray.cpp'
p2668
g313
(g1942
g315
Ntp2669
Rp2670
(dp2671
g1946
g1103
sg1947
g2047
sg339
g1902
sbsS'iwnui.mkf'
p2672
g313
(g1942
g315
Ntp2673
Rp2674
(dp2675
g1946
g1439
sg1947
g2112
sg339
g1437
sbsS'signal.h'
p2676
g313
(g1942
g315
Ntp2677
Rp2678
(dp2679
g1946
g1953
sg1947
g1984
sg339
S'c:/program files/marmalade/7.4/s3e/h/std/signal.h'
p2680
sbsS'ImageManager.cpp'
p2681
g313
(g1942
g315
Ntp2682
Rp2683
(dp2684
g1946
g1103
sg1947
g2047
sg339
g1219
sbsS'iwgl.config.txt'
p2685
g313
(g1942
g315
Ntp2686
Rp2687
(dp2688
g1946
g1280
sg1947
g1967
sg339
g1278
sbsS'libpng.mkf'
p2689
g313
(g1942
g315
Ntp2690
Rp2691
(dp2692
g1946
g1119
sg1947
(lp2693
g1108
asg339
g1117
sbsS'IwUIAlertDialog.h'
p2694
g313
(g1942
g315
Ntp2695
Rp2696
(dp2697
g1946
g1598
sg1947
g1948
sg339
g1687
sbsS'IwGxFuncTable.h'
p2698
g313
(g1942
g315
Ntp2699
Rp2700
(dp2701
g1946
g1780
sg1947
g2127
sg339
g1828
sbsS'IwResHandlerGROUP.h'
p2702
g313
(g1942
g315
Ntp2703
Rp2704
(dp2705
g1946
g1460
sg1947
g2302
sg339
g1473
sbsS'iw2d.config.txt'
p2706
g313
(g1942
g315
Ntp2707
Rp2708
(dp2709
g1946
g1292
sg1947
g2076
sg339
g1295
sbsS'IwUIStyle.h'
p2710
g313
(g1942
g315
Ntp2711
Rp2712
(dp2713
g1946
g1598
sg1947
g1948
sg339
g1639
sbsS'socket.h'
p2714
g313
(g1942
g315
Ntp2715
Rp2716
(dp2717
g1946
g1953
sg1947
g2151
sg339
S'c:/program files/marmalade/7.4/s3e/h/std/sys/socket.h'
p2718
sbsS'glext.h'
p2719
g313
(g1942
g315
Ntp2720
Rp2721
(dp2722
g1946
g1953
sg1947
(lp2723
g1955
aS'GL'
p2724
aS'GLES 1.x'
p2725
asg339
S'c:/program files/marmalade/7.4/s3e/h/GLES/glext.h'
p2726
sbsS'IwUITableView.h'
p2727
g313
(g1942
g315
Ntp2728
Rp2729
(dp2730
g1946
g1598
sg1947
g1948
sg339
g1657
sbsS'IwUILayoutGrid.h'
p2731
g313
(g1942
g315
Ntp2732
Rp2733
(dp2734
g1946
g1598
sg1947
g1948
sg339
g1725
sbsS'typeinfo.h'
p2735
g313
(g1942
g315
Ntp2736
Rp2737
(dp2738
g1946
g1953
sg1947
g1954
sg339
S'c:/program files/marmalade/7.4/s3e/h/std/c++/typeinfo.h'
p2739
sbsS's3enui.mkf'
p2740
g313
(g1942
g315
Ntp2741
Rp2742
(dp2743
g1946
g1891
sg1947
(lp2744
g1842
ag1858
asg339
g1889
sbsS'typeinfo'
p2745
g313
(g1942
g315
Ntp2746
Rp2747
(dp2748
g1946
g1953
sg1947
g1954
sg339
S'c:/program files/marmalade/7.4/s3e/h/std/c++/typeinfo'
p2749
sbsS'IwNUIApp.h'
p2750
g313
(g1942
g315
Ntp2751
Rp2752
(dp2753
g1946
g1402
sg1947
g2112
sg339
g1446
sbsS'IwUIFocusHandlerTab.h'
p2754
g313
(g1942
g315
Ntp2755
Rp2756
(dp2757
g1946
g1598
sg1947
g1948
sg339
g1647
sbsS'iwsound.config.txt'
p2758
g313
(g1942
g315
Ntp2759
Rp2760
(dp2761
g1946
g1175
sg1947
(lp2762
g1171
ag1203
asg339
g1205
sbsS'fstream.h'
p2763
g313
(g1942
g315
Ntp2764
Rp2765
(dp2766
g1946
g1953
sg1947
g1954
sg339
S'c:/program files/marmalade/7.4/s3e/h/std/c++/fstream.h'
p2767
sbsS's3ePointer.h'
p2768
g313
(g1942
g315
Ntp2769
Rp2770
(dp2771
g1946
g1953
sg1947
g1978
sg339
S'c:/program files/marmalade/7.4/s3e/h/s3ePointer.h'
p2772
sbsS'IwMemBucket.h'
p2773
g313
(g1942
g315
Ntp2774
Rp2775
(dp2776
g1946
g1484
sg1947
g1991
sg339
g1572
sbsS'PVRTexTool.h'
p2777
g313
(g1942
g315
Ntp2778
Rp2779
(dp2780
g1946
g1850
sg1947
(lp2781
S'Extensions'
p2782
ag1844
asg339
g1853
sbsS's3eGL.h'
p2783
g313
(g1942
g315
Ntp2784
Rp2785
(dp2786
g1946
g1953
sg1947
g1978
sg339
S'c:/program files/marmalade/7.4/s3e/h/s3eGL.h'
p2787
sbsS'IwGeomFVec2.h'
p2788
g313
(g1942
g315
Ntp2789
Rp2790
(dp2791
g1946
g1326
sg1947
g2031
sg339
g1329
sbsS'IwGeomSVec4.h'
p2792
g313
(g1942
g315
Ntp2793
Rp2794
(dp2795
g1946
g1326
sg1947
g2031
sg339
g1327
sbsS'slist'
p2796
g313
(g1942
g315
Ntp2797
Rp2798
(dp2799
g1946
g1953
sg1947
g1954
sg339
S'c:/program files/marmalade/7.4/s3e/h/std/c++/slist'
p2800
sbsS'poll.h'
p2801
g313
(g1942
g315
Ntp2802
Rp2803
(dp2804
g1946
g1953
sg1947
g1984
sg339
S'c:/program files/marmalade/7.4/s3e/h/std/poll.h'
p2805
sbsS'IwMatAnim.h'
p2806
g313
(g1942
g315
Ntp2807
Rp2808
(dp2809
g1946
g1780
sg1947
g2127
sg339
g1820
sbsS'View.cpp'
p2810
g313
(g1942
g315
Ntp2811
Rp2812
(dp2813
g1946
g1103
sg1947
g2047
sg339
g1223
sbsS'iwui.mkf'
p2814
g313
(g1942
g315
Ntp2815
Rp2816
(dp2817
g1946
g1747
sg1947
g1948
sg339
g1745
sbsS'IwGeomFVec4.h'
p2818
g313
(g1942
g315
Ntp2819
Rp2820
(dp2821
g1946
g1326
sg1947
g2031
sg339
g1349
sbsS'IwUIHoldingPtr.h'
p2822
g313
(g1942
g315
Ntp2823
Rp2824
(dp2825
g1946
g1598
sg1947
g1948
sg339
g1733
sbsS'IwGx.h'
p2826
g313
(g1942
g315
Ntp2827
Rp2828
(dp2829
g1946
g1780
sg1947
g2127
sg339
g1824
sbsS'valarray'
p2830
g313
(g1942
g315
Ntp2831
Rp2832
(dp2833
g1946
g1953
sg1947
g1954
sg339
S'c:/program files/marmalade/7.4/s3e/h/std/c++/valarray'
p2834
sbsS'IwUIElementEventHandler.h'
p2835
g313
(g1942
g315
Ntp2836
Rp2837
(dp2838
g1946
g1598
sg1947
g1948
sg339
g1739
sbsS'iosfwd'
p2839
g313
(g1942
g315
Ntp2840
Rp2841
(dp2842
g1946
g1953
sg1947
g1954
sg339
S'c:/program files/marmalade/7.4/s3e/h/std/c++/iosfwd'
p2843
sbsS'gl2.h'
p2844
g313
(g1942
g315
Ntp2845
Rp2846
(dp2847
g1946
g1953
sg1947
g2294
sg339
S'c:/program files/marmalade/7.4/s3e/h/GLES2/gl2.h'
p2848
sbsS'IwNUIProgressBar.h'
p2849
g313
(g1942
g315
Ntp2850
Rp2851
(dp2852
g1946
g1402
sg1947
g2112
sg339
g1405
sbsS'IwUIEventHandlerSlot.h'
p2853
g313
(g1942
g315
Ntp2854
Rp2855
(dp2856
g1946
g1598
sg1947
g1948
sg339
g1691
sbsS'IwUIElementPropertyBinding.h'
p2857
g313
(g1942
g315
Ntp2858
Rp2859
(dp2860
g1946
g1598
sg1947
g1948
sg339
g1729
sbsS'IwUITableViewItemSource.h'
p2861
g313
(g1942
g315
Ntp2862
Rp2863
(dp2864
g1946
g1598
sg1947
g1948
sg339
g1653
sbsS'stdiostream.h'
p2865
g313
(g1942
g315
Ntp2866
Rp2867
(dp2868
g1946
g1953
sg1947
g1954
sg339
S'c:/program files/marmalade/7.4/s3e/h/std/c++/stdiostream.h'
p2869
sbsS'IwPropertySet.h'
p2870
g313
(g1942
g315
Ntp2871
Rp2872
(dp2873
g1946
g1598
sg1947
g1948
sg339
g1645
sbsS'jerror.h'
p2874
g313
(g1942
g315
Ntp2875
Rp2876
(dp2877
g1946
g1127
sg1947
g2071
sg339
g1138
sbsS'IwNUIScrollView.h'
p2878
g313
(g1942
g315
Ntp2879
Rp2880
(dp2881
g1946
g1402
sg1947
g2112
sg339
g1431
sbsS'zconf.h'
p2882
g313
(g1942
g315
Ntp2883
Rp2884
(dp2885
g1946
g1234
sg1947
(lp2886
g1229
ag1110
asg339
g1232
sbsS's3e.config.txt'
p2887
g313
(g1942
g315
Ntp2888
Rp2889
(dp2890
g1946
g1953
sg1947
g1978
sg339
S'c:/program files/marmalade/7.4/s3e/s3e.config.txt'
p2891
sbsS'numeric'
p2892
g313
(g1942
g315
Ntp2893
Rp2894
(dp2895
g1946
g1953
sg1947
g1954
sg339
S'c:/program files/marmalade/7.4/s3e/h/std/c++/numeric'
p2896
sbsS'utime.h'
p2897
g313
(g1942
g315
Ntp2898
Rp2899
(dp2900
g1946
g1953
sg1947
g1984
sg339
S'c:/program files/marmalade/7.4/s3e/h/std/utime.h'
p2901
sbsS'IwUIImage.h'
p2902
g313
(g1942
g315
Ntp2903
Rp2904
(dp2905
g1946
g1598
sg1947
g1948
sg339
g1762
sbsS'jdhuff.h'
p2906
g313
(g1942
g315
Ntp2907
Rp2908
(dp2909
g1946
g1127
sg1947
g2071
sg339
g1132
sbsS'IwUIDrawable.h'
p2910
g313
(g1942
g315
Ntp2911
Rp2912
(dp2913
g1946
g1598
sg1947
g1948
sg339
g1625
sbsS'IwResHandlerWAV.cpp'
p2914
g313
(g1942
g315
Ntp2915
Rp2916
(dp2917
g1946
g1175
sg1947
g2057
sg339
g1211
sbsS'un.h'
p2918
g313
(g1942
g315
Ntp2919
Rp2920
(dp2921
g1946
g1953
sg1947
g2151
sg339
S'c:/program files/marmalade/7.4/s3e/h/std/sys/un.h'
p2922
sbsS'IwUILayout.h'
p2923
g313
(g1942
g315
Ntp2924
Rp2925
(dp2926
g1946
g1598
sg1947
g1948
sg339
g1601
sbsS'IwImage.h'
p2927
g313
(g1942
g315
Ntp2928
Rp2929
(dp2930
g1946
g1484
sg1947
g1991
sg339
g1511
sbsS'Singleton.h'
p2931
g313
(g1942
g315
Ntp2932
Rp2933
(dp2934
g1946
g1103
sg1947
g2047
sg339
g1896
sbsS'temp_defines_debug.h'
p2935
g313
(g1942
g315
Ntp2936
Rp2937
(dp2938
g1946
(lp2939
sg1947
(lp2940
S"'generated files'"
p2941
asg339
S'd:/Git/Year2/fga2.gt2/SprayAndPray/build_sprayandpray_vc12/temp_defines_debug.h'
p2942
sbsS'IwPropertyDataType.h'
p2943
g313
(g1942
g315
Ntp2944
Rp2945
(dp2946
g1946
g1598
sg1947
g1948
sg339
g1663
sbsS'IwNUIAttributes_internal.h'
p2947
g313
(g1942
g315
Ntp2948
Rp2949
(dp2950
g1946
g1863
sg1947
g2014
sg339
g1864
sbsS'IwUITableViewItem.h'
p2951
g313
(g1942
g315
Ntp2952
Rp2953
(dp2954
g1946
g1598
sg1947
g1948
sg339
g1685
sbsS'IwCopyingPtr.h'
p2955
g313
(g1942
g315
Ntp2956
Rp2957
(dp2958
g1946
g1484
sg1947
g1991
sg339
g1513
sbsS'IwUIRadioButton.h'
p2959
g313
(g1942
g315
Ntp2960
Rp2961
(dp2962
g1946
g1598
sg1947
g1948
sg339
g1621
sbsS'Trackpad.cpp'
p2963
g313
(g1942
g315
Ntp2964
Rp2965
(dp2966
g1946
g1103
sg1947
g2047
sg339
g1900
sbsS'png.h'
p2967
g313
(g1942
g315
Ntp2968
Rp2969
(dp2970
g1946
g1114
sg1947
(lp2971
g1108
ag1110
asg339
g1112
sbsS'stddef.h'
p2972
g313
(g1942
g315
Ntp2973
Rp2974
(dp2975
g1946
g1953
sg1947
g1984
sg339
S'c:/program files/marmalade/7.4/s3e/h/std/stddef.h'
p2976
sbsS's3eOSExec.h'
p2977
g313
(g1942
g315
Ntp2978
Rp2979
(dp2980
g1946
g1953
sg1947
g1997
sg339
S'c:/program files/marmalade/7.4/s3e/h/ext/s3eOSExec.h'
p2981
sbsS'setjmp_win32.h'
p2982
g313
(g1942
g315
Ntp2983
Rp2984
(dp2985
g1946
g1953
sg1947
g1984
sg339
S'c:/program files/marmalade/7.4/s3e/h/std/setjmp_win32.h'
p2986
sbsS'IwGxPrint.h'
p2987
g313
(g1942
g315
Ntp2988
Rp2989
(dp2990
g1946
g1780
sg1947
g2127
sg339
g1795
sbsS'IwClassFactory.h'
p2991
g313
(g1942
g315
Ntp2992
Rp2993
(dp2994
g1946
g1484
sg1947
g1991
sg339
g1521
sbsS'streambuf.h'
p2995
g313
(g1942
g315
Ntp2996
Rp2997
(dp2998
g1946
g1953
sg1947
g1954
sg339
S'c:/program files/marmalade/7.4/s3e/h/std/c++/streambuf.h'
p2999
sbsS'IwUITextField.h'
p3000
g313
(g1942
g315
Ntp3001
Rp3002
(dp3003
g1946
g1598
sg1947
g1948
sg339
g1631
sbsS'IwNUIElementContainer.h'
p3004
g313
(g1942
g315
Ntp3005
Rp3006
(dp3007
g1946
g1402
sg1947
g2112
sg339
g1435
sbsS'wchar.h'
p3008
g313
(g1942
g315
Ntp3009
Rp3010
(dp3011
g1946
g1953
sg1947
g1984
sg339
S'c:/program files/marmalade/7.4/s3e/h/std/wchar.h'
p3012
sbsS's3eCameraCapture.h'
p3013
g313
(g1942
g315
Ntp3014
Rp3015
(dp3016
g1946
g1953
sg1947
g1997
sg339
S'c:/program files/marmalade/7.4/s3e/h/ext/s3eCameraCapture.h'
p3017
sbsS'eglext.h'
p3018
g313
(g1942
g315
Ntp3019
Rp3020
(dp3021
g1946
g1953
sg1947
g2416
sg339
S'c:/program files/marmalade/7.4/s3e/h/EGL/eglext.h'
p3022
sbsS'IwPropertySetFuncs.h'
p3023
g313
(g1942
g315
Ntp3024
Rp3025
(dp3026
g1946
g1598
sg1947
g1948
sg339
g1689
sbsS'IwUIView.h'
p3027
g313
(g1942
g315
Ntp3028
Rp3029
(dp3030
g1946
g1598
sg1947
g1948
sg339
g1613
sbsS'IwResHandlerImage.h'
p3031
g313
(g1942
g315
Ntp3032
Rp3033
(dp3034
g1946
g1460
sg1947
g2302
sg339
g1475
sbsS'Sprite.cpp'
p3035
g313
(g1942
g315
Ntp3036
Rp3037
(dp3038
g1946
g1103
sg1947
g2047
sg339
g1120
sbsS'strstream.h'
p3039
g313
(g1942
g315
Ntp3040
Rp3041
(dp3042
g1946
g1953
sg1947
g1954
sg339
S'c:/program files/marmalade/7.4/s3e/h/std/c++/strstream.h'
p3043
sbsS'tiniconv.h'
p3044
g313
(g1942
g315
Ntp3045
Rp3046
(dp3047
g1946
g1161
sg1947
g2568
sg339
g1165
sbsS'IwGLExt.h'
p3048
g313
(g1942
g315
Ntp3049
Rp3050
(dp3051
g1946
g1280
sg1947
g1967
sg339
g1281
sbsS'IwNUIWindow.h'
p3052
g313
(g1942
g315
Ntp3053
Rp3054
(dp3055
g1946
g1402
sg1947
g2112
sg339
g1444
sbsS'app.icf'
p3056
g313
(g1942
g315
Ntp3057
Rp3058
(dp3059
g1946
(dp3060
sg1947
g4
sg339
S'd:/Git/Year2/fga2.gt2/SprayAndPray/data/app.icf'
p3061
sbsS'zlib.mkf'
p3062
g313
(g1942
g315
Ntp3063
Rp3064
(dp3065
g1946
g1239
sg1947
(lp3066
g1229
asg339
g1237
sbsS'iwgx_public.defines.txt'
p3067
g313
(g1942
g315
Ntp3068
Rp3069
(dp3070
g1946
g1780
sg1947
g2127
sg339
g1816
sbsS'file.h'
p3071
g313
(g1942
g315
Ntp3072
Rp3073
(dp3074
g1946
g1953
sg1947
g2151
sg339
S'c:/program files/marmalade/7.4/s3e/h/std/sys/file.h'
p3075
sbsS'cstring'
p3076
g313
(g1942
g315
Ntp3077
Rp3078
(dp3079
g1946
g1953
sg1947
g1954
sg339
S'c:/program files/marmalade/7.4/s3e/h/std/c++/cstring'
p3080
sbsS'IwSoundInst.cpp'
p3081
g313
(g1942
g315
Ntp3082
Rp3083
(dp3084
g1946
g1175
sg1947
g2057
sg339
g1215
sbsS'iwui.config.txt'
p3085
g313
(g1942
g315
Ntp3086
Rp3087
(dp3088
g1946
g1598
sg1947
g1948
sg339
g1752
sbsS'iwutil.config.txt'
p3089
g313
(g1942
g315
Ntp3090
Rp3091
(dp3092
g1946
g1484
sg1947
g1991
sg339
g1529
sbsS'Enemy.cpp'
p3093
g313
(g1942
g315
Ntp3094
Rp3095
(dp3096
g1946
g1103
sg1947
g2047
sg339
g1931
sbsS'ImageManager.h'
p3097
g313
(g1942
g315
Ntp3098
Rp3099
(dp3100
g1946
g1103
sg1947
g2047
sg339
g1252
sbsS'climits'
p3101
g313
(g1942
g315
Ntp3102
Rp3103
(dp3104
g1946
g1953
sg1947
g1954
sg339
S'c:/program files/marmalade/7.4/s3e/h/std/c++/climits'
p3105
sbsS'limits.h'
p3106
g313
(g1942
g315
Ntp3107
Rp3108
(dp3109
g1946
g1953
sg1947
g1984
sg339
S'c:/program files/marmalade/7.4/s3e/h/std/limits.h'
p3110
sbsS'IwUIDrawableBorder.h'
p3111
g313
(g1942
g315
Ntp3112
Rp3113
(dp3114
g1946
g1598
sg1947
g1948
sg339
g1651
sbsS's3eLibrary.h'
p3115
g313
(g1942
g315
Ntp3116
Rp3117
(dp3118
g1946
g1953
sg1947
g1997
sg339
S'c:/program files/marmalade/7.4/s3e/h/ext/s3eLibrary.h'
p3119
sbsS'IwMaterial.h'
p3120
g313
(g1942
g315
Ntp3121
Rp3122
(dp3123
g1946
g1780
sg1947
g2127
sg339
g1805
sbsS'PVRTexTool_interface.cpp'
p3124
g313
(g1942
g315
Ntp3125
Rp3126
(dp3127
g1946
g1850
sg1947
(lp3128
g2782
ag1844
ag1846
asg339
g1851
sbsS'IwGxSurface.h'
p3129
g313
(g1942
g315
Ntp3130
Rp3131
(dp3132
g1946
g1780
sg1947
g2127
sg339
g1789
sbsS's3eSocket.h'
p3133
g313
(g1942
g315
Ntp3134
Rp3135
(dp3136
g1946
g1953
sg1947
g1978
sg339
S'c:/program files/marmalade/7.4/s3e/h/s3eSocket.h'
p3137
sbsS'IwAutoFile.h'
p3138
g313
(g1942
g315
Ntp3139
Rp3140
(dp3141
g1946
g1484
sg1947
g1991
sg339
g1505
sbsS'ipc.h'
p3142
g313
(g1942
g315
Ntp3143
Rp3144
(dp3145
g1946
g1953
sg1947
g2151
sg339
S'c:/program files/marmalade/7.4/s3e/h/std/sys/ipc.h'
p3146
sbsS'GameView.cpp'
p3147
g313
(g1942
g315
Ntp3148
Rp3149
(dp3150
g1946
g1103
sg1947
g2047
sg339
g1836
sbsS'poll_1.h'
p3151
g313
(g1942
g315
Ntp3152
Rp3153
(dp3154
g1946
g1953
sg1947
g2151
sg339
S'c:/program files/marmalade/7.4/s3e/h/std/sys/poll.h'
p3155
sbsS'IwNUITabBarItem.h'
p3156
g313
(g1942
g315
Ntp3157
Rp3158
(dp3159
g1946
g1402
sg1947
g2112
sg339
g1442
sbsS'IwUIAnimator.h'
p3160
g313
(g1942
g315
Ntp3161
Rp3162
(dp3163
g1946
g1598
sg1947
g1948
sg339
g1619
sbsS'ucontext.h'
p3164
g313
(g1942
g315
Ntp3165
Rp3166
(dp3167
g1946
g1953
sg1947
g1984
sg339
S'c:/program files/marmalade/7.4/s3e/h/std/ucontext.h'
p3168
sbsS'time.h'
p3169
g313
(g1942
g315
Ntp3170
Rp3171
(dp3172
g1946
g1953
sg1947
g1984
sg339
S'c:/program files/marmalade/7.4/s3e/h/std/time.h'
p3173
sbsS'jchuff.h'
p3174
g313
(g1942
g315
Ntp3175
Rp3176
(dp3177
g1946
g1127
sg1947
g2071
sg339
g1150
sbsS'IwSoundPCM.cpp'
p3178
g313
(g1942
g315
Ntp3179
Rp3180
(dp3181
g1946
g1175
sg1947
g2057
sg339
g1199
sbsS's3eSoundRecord.h'
p3182
g313
(g1942
g315
Ntp3183
Rp3184
(dp3185
g1946
g1953
sg1947
g1978
sg339
S'c:/program files/marmalade/7.4/s3e/h/s3eSoundRecord.h'
p3186
sbsS'Checkbox.cpp'
p3187
g313
(g1942
g315
Ntp3188
Rp3189
(dp3190
g1946
g1103
sg1947
g2047
sg339
g1898
sbsS'IwFibre.h'
p3191
g313
(g1942
g315
Ntp3192
Rp3193
(dp3194
g1946
g1484
sg1947
g1991
sg339
g1549
sbsS'IwUISoftKey.h'
p3195
g313
(g1942
g315
Ntp3196
Rp3197
(dp3198
g1946
g1598
sg1947
g1948
sg339
g1772
sbsS's3eClipboard.h'
p3199
g313
(g1942
g315
Ntp3200
Rp3201
(dp3202
g1946
g1953
sg1947
g1978
sg339
S'c:/program files/marmalade/7.4/s3e/h/s3eClipboard.h'
p3203
sbsS'IwUIFuncs.h'
p3204
g313
(g1942
g315
Ntp3205
Rp3206
(dp3207
g1946
g1598
sg1947
g1948
sg339
g1599
sbsS'Trackpad.h'
p3208
g313
(g1942
g315
Ntp3209
Rp3210
(dp3211
g1946
g1103
sg1947
g2047
sg339
g1830
sbsS'IwSoundGroup.h'
p3212
g313
(g1942
g315
Ntp3213
Rp3214
(dp3215
g1946
g1175
sg1947
g2057
sg339
g1197
sbsS'IwNUIView.h'
p3216
g313
(g1942
g315
Ntp3217
Rp3218
(dp3219
g1946
g1402
sg1947
g2112
sg339
g1454
sbsS'IwGxFontGlyph.h'
p3220
g313
(g1942
g315
Ntp3221
Rp3222
(dp3223
g1946
g1304
sg1947
g2288
sg339
g1318
sbsS's3eSMS.h'
p3224
g313
(g1942
g315
Ntp3225
Rp3226
(dp3227
g1946
g1953
sg1947
g1997
sg339
S'c:/program files/marmalade/7.4/s3e/h/ext/s3eSMS.h'
p3228
sbsS'iwgxfont.mkf'
p3229
g313
(g1942
g315
Ntp3230
Rp3231
(dp3232
g1946
g1313
sg1947
g2288
sg339
g1311
sbsS'IwSoundSpec.h'
p3233
g313
(g1942
g315
Ntp3234
Rp3235
(dp3236
g1946
g1175
sg1947
g2057
sg339
g1180
sbsS'cstdarg'
p3237
g313
(g1942
g315
Ntp3238
Rp3239
(dp3240
g1946
g1953
sg1947
g1954
sg339
S'c:/program files/marmalade/7.4/s3e/h/std/c++/cstdarg'
p3241
sbsS'signal_2.h'
p3242
g313
(g1942
g315
Ntp3243
Rp3244
(dp3245
g1946
g1953
sg1947
g1954
sg339
S'c:/program files/marmalade/7.4/s3e/h/std/c++/signal.h'
p3246
sbsS'GuiTexture.h'
p3247
g313
(g1942
g315
Ntp3248
Rp3249
(dp3250
g1946
g1103
sg1947
g2047
sg339
g1248
sbsS's3eDebug.h'
p3251
g313
(g1942
g315
Ntp3252
Rp3253
(dp3254
g1946
g1953
sg1947
g1978
sg339
S'c:/program files/marmalade/7.4/s3e/h/s3eDebug.h'
p3255
sbsS'IwUIElementUtil.h'
p3256
g313
(g1942
g315
Ntp3257
Rp3258
(dp3259
g1946
g1598
sg1947
g1948
sg339
g1766
sbsS'termios.h'
p3260
g313
(g1942
g315
Ntp3261
Rp3262
(dp3263
g1946
g1953
sg1947
g1984
sg339
S'c:/program files/marmalade/7.4/s3e/h/std/termios.h'
p3264
sbsS'Menu.h'
p3265
g313
(g1942
g315
Ntp3266
Rp3267
(dp3268
g1946
g1103
sg1947
g2047
sg339
g1169
sbsS'iw2dscenegraph.mkf'
p3269
g313
(g1942
g315
Ntp3270
Rp3271
(dp3272
g1946
g1271
sg1947
g2369
sg339
g1269
sbsS'IwUILayoutSpacer.h'
p3273
g313
(g1942
g315
Ntp3274
Rp3275
(dp3276
g1946
g1598
sg1947
g1948
sg339
g1715
sbsS'IwUIPickerWheel.h'
p3277
g313
(g1942
g315
Ntp3278
Rp3279
(dp3280
g1946
g1598
sg1947
g1948
sg339
g1611
sbsS'cstdlib'
p3281
g313
(g1942
g315
Ntp3282
Rp3283
(dp3284
g1946
g1953
sg1947
g1954
sg339
S'c:/program files/marmalade/7.4/s3e/h/std/c++/cstdlib'
p3285
sbsS's3eLocation.h'
p3286
g313
(g1942
g315
Ntp3287
Rp3288
(dp3289
g1946
g1953
sg1947
g1978
sg339
S'c:/program files/marmalade/7.4/s3e/h/s3eLocation.h'
p3290
sbsS'IwNUIBase.h'
p3291
g313
(g1942
g315
Ntp3292
Rp3293
(dp3294
g1946
g1863
sg1947
g2014
sg339
g1872
sbsS'IwPropertyList.h'
p3295
g313
(g1942
g315
Ntp3296
Rp3297
(dp3298
g1946
g1598
sg1947
g1948
sg339
g1699
sbsS'IwMemBucketHelpers.h'
p3299
g313
(g1942
g315
Ntp3300
Rp3301
(dp3302
g1946
g1484
sg1947
g1991
sg339
g1543
sbsS's3eHash.h'
p3303
g313
(g1942
g315
Ntp3304
Rp3305
(dp3306
g1946
g1953
sg1947
g1978
sg339
S'c:/program files/marmalade/7.4/s3e/h/s3eHash.h'
p3307
sbsS'IwSoundGroup.cpp'
p3308
g313
(g1942
g315
Ntp3309
Rp3310
(dp3311
g1946
g1175
sg1947
g2057
sg339
g1173
sbsS'IwGeomFMat.h'
p3312
g313
(g1942
g315
Ntp3313
Rp3314
(dp3315
g1946
g1326
sg1947
g2031
sg339
g1357
sbsS'type_traits.h'
p3316
g313
(g1942
g315
Ntp3317
Rp3318
(dp3319
g1946
g1953
sg1947
g1954
sg339
S'c:/program files/marmalade/7.4/s3e/h/std/c++/type_traits.h'
p3320
sbsS'IwUIEventHandler.h'
p3321
g313
(g1942
g315
Ntp3322
Rp3323
(dp3324
g1946
g1598
sg1947
g1948
sg339
g1649
sbsS'IwMenu.h'
p3325
g313
(g1942
g315
Ntp3326
Rp3327
(dp3328
g1946
g1484
sg1947
g1991
sg339
g1574
sbsS'IwResHandlerITX.h'
p3329
g313
(g1942
g315
Ntp3330
Rp3331
(dp3332
g1946
g1460
sg1947
g2302
sg339
g1469
sbsS'IwSoundData.h'
p3333
g313
(g1942
g315
Ntp3334
Rp3335
(dp3336
g1946
g1175
sg1947
g2057
sg339
g1182
sbsS'IwArray.h'
p3337
g313
(g1942
g315
Ntp3338
Rp3339
(dp3340
g1946
g1484
sg1947
g1991
sg339
g1539
sbsS'IwUTF8.h'
p3341
g313
(g1942
g315
Ntp3342
Rp3343
(dp3344
g1946
g1484
sg1947
g1991
sg339
g1541
sbsS'math_rvct.h'
p3345
g313
(g1942
g315
Ntp3346
Rp3347
(dp3348
g1946
g1953
sg1947
g1984
sg339
S'c:/program files/marmalade/7.4/s3e/h/std/math_rvct.h'
p3349
sbsS'IwUtil.h'
p3350
g313
(g1942
g315
Ntp3351
Rp3352
(dp3353
g1946
g1484
sg1947
g1991
sg339
g1533
sbsS's3eNUI.defines.txt'
p3354
g313
(g1942
g315
Ntp3355
Rp3356
(dp3357
g1946
g1863
sg1947
(lp3358
g1842
ag1858
ag1892
asg339
g1894
sbsS'IwGeomVec3.h'
p3359
g313
(g1942
g315
Ntp3360
Rp3361
(dp3362
g1946
g1326
sg1947
g2031
sg339
g1387
sbsS's3eThread.h'
p3363
g313
(g1942
g315
Ntp3364
Rp3365
(dp3366
g1946
g1953
sg1947
g1978
sg339
S'c:/program files/marmalade/7.4/s3e/h/s3eThread.h'
p3367
sbsS'wctype.h'
p3368
g313
(g1942
g315
Ntp3369
Rp3370
(dp3371
g1946
g1953
sg1947
g1984
sg339
S'c:/program files/marmalade/7.4/s3e/h/std/wctype.h'
p3372
sbsS'IwNUI.h'
p3373
g313
(g1942
g315
Ntp3374
Rp3375
(dp3376
g1946
g1402
sg1947
g2112
sg339
g1440
sbsS'Sprite.h'
p3377
g313
(g1942
g315
Ntp3378
Rp3379
(dp3380
g1946
g1103
sg1947
g2047
sg339
g1246
sbsS'cstddef'
p3381
g313
(g1942
g315
Ntp3382
Rp3383
(dp3384
g1946
g1953
sg1947
g1954
sg339
S'c:/program files/marmalade/7.4/s3e/h/std/c++/cstddef'
p3385
sbsS'assert.h'
p3386
g313
(g1942
g315
Ntp3387
Rp3388
(dp3389
g1946
g1953
sg1947
g1984
sg339
S'c:/program files/marmalade/7.4/s3e/h/std/assert.h'
p3390
sbsS'mman.h'
p3391
g313
(g1942
g315
Ntp3392
Rp3393
(dp3394
g1946
g1953
sg1947
g2151
sg339
S'c:/program files/marmalade/7.4/s3e/h/std/sys/mman.h'
p3395
sbsS'GuiElement.h'
p3396
g313
(g1942
g315
Ntp3397
Rp3398
(dp3399
g1946
g1103
sg1947
g2047
sg339
g1104
sbsS'IwNUIEvent.h'
p3400
g313
(g1942
g315
Ntp3401
Rp3402
(dp3403
g1946
g1863
sg1947
g2014
sg339
g1878
sbsS'IwPropertyBinding.h'
p3404
g313
(g1942
g315
Ntp3405
Rp3406
(dp3407
g1946
g1598
sg1947
g1948
sg339
g1703
sbsS'utsname.h'
p3408
g313
(g1942
g315
Ntp3409
Rp3410
(dp3411
g1946
g1953
sg1947
g2151
sg339
S'c:/program files/marmalade/7.4/s3e/h/std/sys/utsname.h'
p3412
sbsS'wait.h'
p3413
g313
(g1942
g315
Ntp3414
Rp3415
(dp3416
g1946
g1953
sg1947
g2151
sg339
S'c:/program files/marmalade/7.4/s3e/h/std/sys/wait.h'
p3417
sbsS'Bullet.cpp'
p3418
g313
(g1942
g315
Ntp3419
Rp3420
(dp3421
g1946
g1103
sg1947
g2047
sg339
g1260
sbsS'param.h'
p3422
g313
(g1942
g315
Ntp3423
Rp3424
(dp3425
g1946
g1953
sg1947
g2151
sg339
S'c:/program files/marmalade/7.4/s3e/h/std/sys/param.h'
p3426
sbsS'libgen.h'
p3427
g313
(g1942
g315
Ntp3428
Rp3429
(dp3430
g1946
g1953
sg1947
g1984
sg339
S'c:/program files/marmalade/7.4/s3e/h/std/libgen.h'
p3431
sbsS'IwDivide.h'
p3432
g313
(g1942
g315
Ntp3433
Rp3434
(dp3435
g1946
g1484
sg1947
g1991
sg339
g1523
sbsS'Iw2DSceneGraphCore.cpp'
p3436
g313
(g1942
g315
Ntp3437
Rp3438
(dp3439
g1946
g1591
sg1947
(lp3440
S"'Marmalade Studio'"
p3441
ag1584
asg339
g1589
sbsS'IwResManager.h'
p3442
g313
(g1942
g315
Ntp3443
Rp3444
(dp3445
g1946
g1460
sg1947
g2302
sg339
g1467
sbsS'IwSoundManager.h'
p3446
g313
(g1942
g315
Ntp3447
Rp3448
(dp3449
g1946
g1175
sg1947
g2057
sg339
g1193
sbsS'cwctype'
p3450
g313
(g1942
g315
Ntp3451
Rp3452
(dp3453
g1946
g1953
sg1947
g1954
sg339
S'c:/program files/marmalade/7.4/s3e/h/std/c++/cwctype'
p3454
sbsS's3eTypes.h'
p3455
g313
(g1942
g315
Ntp3456
Rp3457
(dp3458
g1946
g1953
sg1947
g1978
sg339
S'c:/program files/marmalade/7.4/s3e/h/s3eTypes.h'
p3459
sbsS'alloca.h'
p3460
g313
(g1942
g315
Ntp3461
Rp3462
(dp3463
g1946
g1953
sg1947
g1984
sg339
S'c:/program files/marmalade/7.4/s3e/h/std/alloca.h'
p3464
sbsS'set'
p3465
g313
(g1942
g315
Ntp3466
Rp3467
(dp3468
g1946
g1953
sg1947
g1954
sg339
S'c:/program files/marmalade/7.4/s3e/h/std/c++/set'
p3469
sbsS'IwGeomSQuat.h'
p3470
g313
(g1942
g315
Ntp3471
Rp3472
(dp3473
g1946
g1326
sg1947
g2031
sg339
g1343
sbsS'locale'
p3474
g313
(g1942
g315
Ntp3475
Rp3476
(dp3477
g1946
g1953
sg1947
g1954
sg339
S'c:/program files/marmalade/7.4/s3e/h/std/c++/locale'
p3478
sbsS'cstdio'
p3479
g313
(g1942
g315
Ntp3480
Rp3481
(dp3482
g1946
g1953
sg1947
g1954
sg339
S'c:/program files/marmalade/7.4/s3e/h/std/c++/cstdio'
p3483
sbsS'IwNUITable.h'
p3484
g313
(g1942
g315
Ntp3485
Rp3486
(dp3487
g1946
g1402
sg1947
g2112
sg339
g1448
sbsS'IwNUIActivityIndicator.h'
p3488
g313
(g1942
g315
Ntp3489
Rp3490
(dp3491
g1946
g1402
sg1947
g2112
sg339
g1452
sbsS'cdjpeg.h'
p3492
g313
(g1942
g315
Ntp3493
Rp3494
(dp3495
g1946
g1127
sg1947
g2071
sg339
g1146
sbsS'IwList.h'
p3496
g313
(g1942
g315
Ntp3497
Rp3498
(dp3499
g1946
g1484
sg1947
g1991
sg339
g1482
sbsS'inttypes.h'
p3500
g313
(g1942
g315
Ntp3501
Rp3502
(dp3503
g1946
g1953
sg1947
g1984
sg339
S'c:/program files/marmalade/7.4/s3e/h/std/inttypes.h'
p3504
sbsS'Background.h'
p3505
g313
(g1942
g315
Ntp3506
Rp3507
(dp3508
g1946
g1103
sg1947
g2047
sg339
g1919
sbsS'dirent.h'
p3509
g313
(g1942
g315
Ntp3510
Rp3511
(dp3512
g1946
g1953
sg1947
g1984
sg339
S'c:/program files/marmalade/7.4/s3e/h/std/dirent.h'
p3513
sbsS'IwFColour.h'
p3514
g313
(g1942
g315
Ntp3515
Rp3516
(dp3517
g1946
g1780
sg1947
g2127
sg339
g1781
sbsS'Menu.cpp'
p3518
g313
(g1942
g315
Ntp3519
Rp3520
(dp3521
g1946
g1103
sg1947
g2047
sg339
g1167
sbsS'transupp.h'
p3522
g313
(g1942
g315
Ntp3523
Rp3524
(dp3525
g1946
g1127
sg1947
g2071
sg339
g1130
sbsS'IwMath.h'
p3526
g313
(g1942
g315
Ntp3527
Rp3528
(dp3529
g1946
g1484
sg1947
g1991
sg339
g1547
sbsS'IwGeomQuat.h'
p3530
g313
(g1942
g315
Ntp3531
Rp3532
(dp3533
g1946
g1326
sg1947
g2031
sg339
g1375
sbsS'Iw2DSceneGraph.cpp'
p3534
g313
(g1942
g315
Ntp3535
Rp3536
(dp3537
g1946
g1268
sg1947
g2369
sg339
g1266
sbsS'glplatform.h'
p3538
g313
(g1942
g315
Ntp3539
Rp3540
(dp3541
g1946
g1953
sg1947
g2723
sg339
S'c:/program files/marmalade/7.4/s3e/h/GLES/glplatform.h'
p3542
sbsS's3e-default.mkf'
p3543
g313
(g1942
g315
Ntp3544
Rp3545
(dp3546
g1946
g1910
sg1947
(lp3547
g1906
asg339
g1908
sbsS'IwNUIImage.h'
p3548
g313
(g1942
g315
Ntp3549
Rp3550
(dp3551
g1946
g1402
sg1947
g2112
sg339
g1419
sbsS'IwSerialise.h'
p3552
g313
(g1942
g315
Ntp3553
Rp3554
(dp3555
g1946
g1484
sg1947
g1991
sg339
g1489
sbsS'IwPropertyData.h'
p3556
g313
(g1942
g315
Ntp3557
Rp3558
(dp3559
g1946
g1598
sg1947
g1948
sg339
g1713
sbsS'IwChar.h'
p3560
g313
(g1942
g315
Ntp3561
Rp3562
(dp3563
g1946
g1484
sg1947
g1991
sg339
g1531
sbsS'IwPropertyDefine.h'
p3564
g313
(g1942
g315
Ntp3565
Rp3566
(dp3567
g1946
g1598
sg1947
g1948
sg339
g1617
sbsS'IwResHandlerMTL.h'
p3568
g313
(g1942
g315
Ntp3569
Rp3570
(dp3571
g1946
g1780
sg1947
g2127
sg339
g1797
sbsS'IwRuntime.h'
p3572
g313
(g1942
g315
Ntp3573
Rp3574
(dp3575
g1946
g1484
sg1947
g1991
sg339
g1527
sbsS'limits'
p3576
g313
(g1942
g315
Ntp3577
Rp3578
(dp3579
g1946
g1953
sg1947
g1954
sg339
S'c:/program files/marmalade/7.4/s3e/h/std/c++/limits'
p3580
sbsS'IwGeomBBox.h'
p3581
g313
(g1942
g315
Ntp3582
Rp3583
(dp3584
g1946
g1326
sg1947
g2031
sg339
g1345
sbsS'AudioManager.cpp'
p3585
g313
(g1942
g315
Ntp3586
Rp3587
(dp3588
g1946
g1103
sg1947
g2047
sg339
g1832
sbsS's3eContacts.h'
p3589
g313
(g1942
g315
Ntp3590
Rp3591
(dp3592
g1946
g1953
sg1947
g1978
sg339
S'c:/program files/marmalade/7.4/s3e/h/s3eContacts.h'
p3593
sbsS's3eLicense.h'
p3594
g313
(g1942
g315
Ntp3595
Rp3596
(dp3597
g1946
g1953
sg1947
g1978
sg339
S'c:/program files/marmalade/7.4/s3e/h/s3eLicense.h'
p3598
sbsS'IwUIElementSignal.h'
p3599
g313
(g1942
g315
Ntp3600
Rp3601
(dp3602
g1946
g1598
sg1947
g1948
sg339
g1637
sbsS'iwgx.config.txt'
p3603
g313
(g1942
g315
Ntp3604
Rp3605
(dp3606
g1946
g1780
sg1947
g2127
sg339
g1801
sbsS'IwNUIEventDispatcher.h'
p3607
g313
(g1942
g315
Ntp3608
Rp3609
(dp3610
g1946
g1402
sg1947
g2112
sg339
g1421
sbsS'IwTextParser.h'
p3611
g313
(g1942
g315
Ntp3612
Rp3613
(dp3614
g1946
g1484
sg1947
g1991
sg339
g1525
sbsS'Player.h'
p3615
g313
(g1942
g315
Ntp3616
Rp3617
(dp3618
g1946
g1103
sg1947
g2047
sg339
g1834
sbsS's3eTimer.h'
p3619
g313
(g1942
g315
Ntp3620
Rp3621
(dp3622
g1946
g1953
sg1947
g1978
sg339
S'c:/program files/marmalade/7.4/s3e/h/s3eTimer.h'
p3623
sbsS'IwGeomVec.h'
p3624
g313
(g1942
g315
Ntp3625
Rp3626
(dp3627
g1946
g1326
sg1947
g2031
sg339
g1359
sbsS'IwGxFontPreparedData.h'
p3628
g313
(g1942
g315
Ntp3629
Rp3630
(dp3631
g1946
g1304
sg1947
g2288
sg339
g1307
sbsS'IwUIAtlas.h'
p3632
g313
(g1942
g315
Ntp3633
Rp3634
(dp3635
g1946
g1598
sg1947
g1948
sg339
g1667
sbsS'GameView.h'
p3636
g313
(g1942
g315
Ntp3637
Rp3638
(dp3639
g1946
g1103
sg1947
g2047
sg339
g1917
sbsS'IwNUITabBar.h'
p3640
g313
(g1942
g315
Ntp3641
Rp3642
(dp3643
g1946
g1402
sg1947
g2112
sg339
g1433
sbsS'Player.cpp'
p3644
g313
(g1942
g315
Ntp3645
Rp3646
(dp3647
g1946
g1103
sg1947
g2047
sg339
g1915
sbsS'IwPropertyBase.h'
p3648
g313
(g1942
g315
Ntp3649
Rp3650
(dp3651
g1946
g1598
sg1947
g1948
sg339
g1721
sbsS'Background.cpp'
p3652
g313
(g1942
g315
Ntp3653
Rp3654
(dp3655
g1946
g1103
sg1947
g2047
sg339
g1937
sbsS'IwResHandler.h'
p3656
g313
(g1942
g315
Ntp3657
Rp3658
(dp3659
g1946
g1460
sg1947
g2302
sg339
g1458
sbsS'IwUIEvent.h'
p3660
g313
(g1942
g315
Ntp3661
Rp3662
(dp3663
g1946
g1598
sg1947
g1948
sg339
g1655
sbsS's3eSound.h'
p3664
g313
(g1942
g315
Ntp3665
Rp3666
(dp3667
g1946
g1953
sg1947
g1978
sg339
S'c:/program files/marmalade/7.4/s3e/h/s3eSound.h'
p3668
sbsS'IwVariableBitField.h'
p3669
g313
(g1942
g315
Ntp3670
Rp3671
(dp3672
g1946
g1484
sg1947
g1991
sg339
g1487
sbsS'Bullet.h'
p3673
g313
(g1942
g315
Ntp3674
Rp3675
(dp3676
g1946
g1103
sg1947
g2047
sg339
g1838
sbsS'exception.h'
p3677
g313
(g1942
g315
Ntp3678
Rp3679
(dp3680
g1946
g1953
sg1947
g1954
sg339
S'c:/program files/marmalade/7.4/s3e/h/std/c++/exception.h'
p3681
sbsS'Button.cpp'
p3682
g313
(g1942
g315
Ntp3683
Rp3684
(dp3685
g1946
g1103
sg1947
g2047
sg339
g1242
sbsS'iwgeom.config.txt'
p3686
g313
(g1942
g315
Ntp3687
Rp3688
(dp3689
g1946
g1326
sg1947
g2031
sg339
g1383
sbsS'iwgx.mkf'
p3690
g313
(g1942
g315
Ntp3691
Rp3692
(dp3693
g1946
g1809
sg1947
g2127
sg339
g1807
sbsS'gl.h'
p3694
g313
(g1942
g315
Ntp3695
Rp3696
(dp3697
g1946
g1953
sg1947
g2723
sg339
S'c:/program files/marmalade/7.4/s3e/h/GLES/gl.h'
p3698
sbsS'zlib.h'
p3699
g313
(g1942
g315
Ntp3700
Rp3701
(dp3702
g1946
g1234
sg1947
g2886
sg339
g1235
sbsS'temp_defines_release.h'
p3703
g313
(g1942
g315
Ntp3704
Rp3705
(dp3706
g1946
(lp3707
sg1947
(lp3708
g2941
asg339
S'd:/Git/Year2/fga2.gt2/SprayAndPray/build_sprayandpray_vc12/temp_defines_release.h'
p3709
sbsS'iwgl.mkf'
p3710
g313
(g1942
g315
Ntp3711
Rp3712
(dp3713
g1946
g1285
sg1947
g1967
sg339
g1283
sbsS'IwColour.h'
p3714
g313
(g1942
g315
Ntp3715
Rp3716
(dp3717
g1946
g1780
sg1947
g2127
sg339
g1783
sbsS'types.h'
p3718
g313
(g1942
g315
Ntp3719
Rp3720
(dp3721
g1946
g1953
sg1947
g2151
sg339
S'c:/program files/marmalade/7.4/s3e/h/std/sys/types.h'
p3722
sbsS'View.h'
p3723
g313
(g1942
g315
Ntp3724
Rp3725
(dp3726
g1946
g1103
sg1947
g2047
sg339
g1225
sbsS'ifaddrs.h'
p3727
g313
(g1942
g315
Ntp3728
Rp3729
(dp3730
g1946
g1953
sg1947
g1984
sg339
S'c:/program files/marmalade/7.4/s3e/h/std/ifaddrs.h'
p3731
sbsS'IwManagedList.h'
p3732
g313
(g1942
g315
Ntp3733
Rp3734
(dp3735
g1946
g1484
sg1947
g1991
sg339
g1558
sbsS'strstream'
p3736
g313
(g1942
g315
Ntp3737
Rp3738
(dp3739
g1946
g1953
sg1947
g1954
sg339
S'c:/program files/marmalade/7.4/s3e/h/std/c++/strstream'
p3740
sbsS'IwTween.cpp'
p3741
g313
(g1942
g315
Ntp3742
Rp3743
(dp3744
g1946
g1928
sg1947
g2635
sg339
g1926
sbsS'exception'
p3745
g313
(g1942
g315
Ntp3746
Rp3747
(dp3748
g1946
g1953
sg1947
g1954
sg339
S'c:/program files/marmalade/7.4/s3e/h/std/c++/exception'
p3749
sbsS'rlocks.h'
p3750
g313
(g1942
g315
Ntp3751
Rp3752
(dp3753
g1946
g1953
sg1947
g1954
sg339
S'c:/program files/marmalade/7.4/s3e/h/std/c++/rlocks.h'
p3754
sbsS'IwUILayoutHorizontal.h'
p3755
g313
(g1942
g315
Ntp3756
Rp3757
(dp3758
g1946
g1598
sg1947
g1948
sg339
g1695
sbsS'ioctl.h'
p3759
g313
(g1942
g315
Ntp3760
Rp3761
(dp3762
g1946
g1953
sg1947
g2151
sg339
S'c:/program files/marmalade/7.4/s3e/h/std/sys/ioctl.h'
p3763
sbsS'rope'
p3764
g313
(g1942
g315
Ntp3765
Rp3766
(dp3767
g1946
g1953
sg1947
g1954
sg339
S'c:/program files/marmalade/7.4/s3e/h/std/c++/rope'
p3768
sbsS'jinclude.h'
p3769
g313
(g1942
g315
Ntp3770
Rp3771
(dp3772
g1946
g1127
sg1947
g2071
sg339
g1136
sbsS'IwUIDelegate.h'
p3773
g313
(g1942
g315
Ntp3774
Rp3775
(dp3776
g1946
g1598
sg1947
g1948
sg339
g1673
sbsS'IwUIDebug.h'
p3777
g313
(g1942
g315
Ntp3778
Rp3779
(dp3780
g1946
g1598
sg1947
g1948
sg339
g1707
sbsS'IwEvent.h'
p3781
g313
(g1942
g315
Ntp3782
Rp3783
(dp3784
g1946
g1484
sg1947
g1991
sg339
g1545
sbsS'IwUIController.h'
p3785
g313
(g1942
g315
Ntp3786
Rp3787
(dp3788
g1946
g1598
sg1947
g1948
sg339
g1671
sbsS'IwOptimiseSize.h'
p3789
g313
(g1942
g315
Ntp3790
Rp3791
(dp3792
g1946
g1484
sg1947
g1991
sg339
g1568
sbsS'iwgxfont_public.defines.txt'
p3793
g313
(g1942
g315
Ntp3794
Rp3795
(dp3796
g1946
g1304
sg1947
g2288
sg339
g1316
sbsS'iconv.h'
p3797
g313
(g1942
g315
Ntp3798
Rp3799
(dp3800
g1946
g1953
sg1947
g1984
sg339
S'c:/program files/marmalade/7.4/s3e/h/std/iconv.h'
p3801
sbsS's3eDevice.h'
p3802
g313
(g1942
g315
Ntp3803
Rp3804
(dp3805
g1946
g1953
sg1947
g1978
sg339
S'c:/program files/marmalade/7.4/s3e/h/s3eDevice.h'
p3806
sbsS'IwGeomSphere.h'
p3807
g313
(g1942
g315
Ntp3808
Rp3809
(dp3810
g1946
g1326
sg1947
g2031
sg339
g1333
sbsS'tiniconv.mkf'
p3811
g313
(g1942
g315
Ntp3812
Rp3813
(dp3814
g1946
g1164
sg1947
g2568
sg339
g1162
sbsS'IwUIAnimData.h'
p3815
g313
(g1942
g315
Ntp3816
Rp3817
(dp3818
g1946
g1598
sg1947
g1948
sg339
g1764
sbsS'iw2dscenegraph.defines.txt'
p3819
g313
(g1942
g315
Ntp3820
Rp3821
(dp3822
g1946
g1268
sg1947
g2369
sg339
g1272
sbsS'jdct.h'
p3823
g313
(g1942
g315
Ntp3824
Rp3825
(dp3826
g1946
g1127
sg1947
g2071
sg339
g1152
sbsS'cctype'
p3827
g313
(g1942
g315
Ntp3828
Rp3829
(dp3830
g1946
g1953
sg1947
g1954
sg339
S'c:/program files/marmalade/7.4/s3e/h/std/c++/cctype'
p3831
sbsS'IwSoundADPCM.cpp'
p3832
g313
(g1942
g315
Ntp3833
Rp3834
(dp3835
g1946
g1175
sg1947
g2057
sg339
g1195
sbsS's3eConfig.h'
p3836
g313
(g1942
g315
Ntp3837
Rp3838
(dp3839
g1946
g1953
sg1947
g1978
sg339
S'c:/program files/marmalade/7.4/s3e/h/s3eConfig.h'
p3840
sbsS'IwHashString.h'
p3841
g313
(g1942
g315
Ntp3842
Rp3843
(dp3844
g1946
g1484
sg1947
g1991
sg339
g1503
sbsS'stat.h'
p3845
g313
(g1942
g315
Ntp3846
Rp3847
(dp3848
g1946
g1953
sg1947
g2151
sg339
S'c:/program files/marmalade/7.4/s3e/h/std/sys/stat.h'
p3849
sbsS'byteswap.h'
p3850
g313
(g1942
g315
Ntp3851
Rp3852
(dp3853
g1946
g1953
sg1947
g1984
sg339
S'c:/program files/marmalade/7.4/s3e/h/std/byteswap.h'
p3854
sbsS'iwresmanager.mkf'
p3855
g313
(g1942
g315
Ntp3856
Rp3857
(dp3858
g1946
g1479
sg1947
g2302
sg339
g1477
sbsS'IwUtilInitTerm.h'
p3859
g313
(g1942
g315
Ntp3860
Rp3861
(dp3862
g1946
g1484
sg1947
g1991
sg339
g1501
sbsS's3eVersion.h'
p3863
g313
(g1942
g315
Ntp3864
Rp3865
(dp3866
g1946
g1953
sg1947
g1978
sg339
S'c:/program files/marmalade/7.4/s3e/h/s3eVersion.h'
p3867
sbsS'pthread_1.h'
p3868
g313
(g1942
g315
Ntp3869
Rp3870
(dp3871
g1946
g1953
sg1947
g1954
sg339
S'c:/program files/marmalade/7.4/s3e/h/std/c++/pthread.h'
p3872
sbsS'iw2d.mkf'
p3873
g313
(g1942
g315
Ntp3874
Rp3875
(dp3876
g1946
g1299
sg1947
g2076
sg339
g1297
sbsS'complex'
p3877
g313
(g1942
g315
Ntp3878
Rp3879
(dp3880
g1946
g1953
sg1947
g1954
sg339
S'c:/program files/marmalade/7.4/s3e/h/std/c++/complex'
p3881
sbsS'algorithm'
p3882
g313
(g1942
g315
Ntp3883
Rp3884
(dp3885
g1946
g1953
sg1947
g1954
sg339
S'c:/program files/marmalade/7.4/s3e/h/std/c++/algorithm'
p3886
sbsS's3e.icf'
p3887
g313
(g1942
g315
Ntp3888
Rp3889
(dp3890
g1946
g1953
sg1947
g1978
sg339
S'c:/program files/marmalade/7.4/s3e/s3e.icf'
p3891
sbsS'sem.h'
p3892
g313
(g1942
g315
Ntp3893
Rp3894
(dp3895
g1946
g1953
sg1947
g2151
sg339
S'c:/program files/marmalade/7.4/s3e/h/std/sys/sem.h'
p3896
sbsS'IwGxFontState.h'
p3897
g313
(g1942
g315
Ntp3898
Rp3899
(dp3900
g1946
g1304
sg1947
g2288
sg339
g1305
sbsS'stdio.h'
p3901
g313
(g1942
g315
Ntp3902
Rp3903
(dp3904
g1946
g1953
sg1947
g1984
sg339
S'c:/program files/marmalade/7.4/s3e/h/std/stdio.h'
p3905
sbsS'Game.h'
p3906
g313
(g1942
g315
Ntp3907
Rp3908
(dp3909
g1946
g1103
sg1947
g2047
sg339
g1258
sbsS'jmemsys.h'
p3910
g313
(g1942
g315
Ntp3911
Rp3912
(dp3913
g1946
g1127
sg1947
g2071
sg339
g1148
sbsS'ios'
p3914
g313
(g1942
g315
Ntp3915
Rp3916
(dp3917
g1946
g1953
sg1947
g1954
sg339
S'c:/program files/marmalade/7.4/s3e/h/std/c++/ios'
p3918
sbsS'gl3platform.h'
p3919
g313
(g1942
g315
Ntp3920
Rp3921
(dp3922
g1946
g1953
sg1947
(lp3923
g1955
aS'GL'
p3924
aS'GLES 3.0'
p3925
asg339
S'c:/program files/marmalade/7.4/s3e/h/GLES3/gl3platform.h'
p3926
sbsS'IwTween.h'
p3927
g313
(g1942
g315
Ntp3928
Rp3929
(dp3930
g1946
g1928
sg1947
g2635
sg339
g1929
sbsS'IwUIProgressBar.h'
p3931
g313
(g1942
g315
Ntp3932
Rp3933
(dp3934
g1946
g1598
sg1947
g1948
sg339
g1603
sbsS'PVRTexTool.defines.txt'
p3935
g313
(g1942
g315
Ntp3936
Rp3937
(dp3938
g1946
g1850
sg1947
g3128
sg339
g1848
sbsS'stack'
p3939
g313
(g1942
g315
Ntp3940
Rp3941
(dp3942
g1946
g1953
sg1947
g1954
sg339
S'c:/program files/marmalade/7.4/s3e/h/std/c++/stack'
p3943
sbsS'IwUIMat.h'
p3944
g313
(g1942
g315
Ntp3945
Rp3946
(dp3947
g1946
g1598
sg1947
g1948
sg339
g1633
sbsS'IwSoundParams.h'
p3948
g313
(g1942
g315
Ntp3949
Rp3950
(dp3951
g1946
g1175
sg1947
g2057
sg339
g1217
sbsS'new.h'
p3952
g313
(g1942
g315
Ntp3953
Rp3954
(dp3955
g1946
g1953
sg1947
g1954
sg339
S'c:/program files/marmalade/7.4/s3e/h/std/c++/new.h'
p3956
sbsS'IwUIPickerViewItemSource.h'
p3957
g313
(g1942
g315
Ntp3958
Rp3959
(dp3960
g1946
g1598
sg1947
g1948
sg339
g1758
sbsS's3eVideo.h'
p3961
g313
(g1942
g315
Ntp3962
Rp3963
(dp3964
g1946
g1953
sg1947
g1978
sg339
S'c:/program files/marmalade/7.4/s3e/h/s3eVideo.h'
p3965
sbsS'IwFile.h'
p3966
g313
(g1942
g315
Ntp3967
Rp3968
(dp3969
g1946
g1484
sg1947
g1991
sg339
g1535
sbsS'pwd.h'
p3970
g313
(g1942
g315
Ntp3971
Rp3972
(dp3973
g1946
g1953
sg1947
g1984
sg339
S'c:/program files/marmalade/7.4/s3e/h/std/pwd.h'
p3974
sbsS'gl3.h'
p3975
g313
(g1942
g315
Ntp3976
Rp3977
(dp3978
g1946
g1953
sg1947
g3923
sg339
S'c:/program files/marmalade/7.4/s3e/h/GLES3/gl3.h'
p3979
sbsS'IwClip.h'
p3980
g313
(g1942
g315
Ntp3981
Rp3982
(dp3983
g1946
g1780
sg1947
g2127
sg339
g1803
sbsS'IwSoundInst.h'
p3984
g313
(g1942
g315
Ntp3985
Rp3986
(dp3987
g1946
g1175
sg1947
g2057
sg339
g1207
sbsS'IwNUIToolBar.h'
p3988
g313
(g1942
g315
Ntp3989
Rp3990
(dp3991
g1946
g1402
sg1947
g2112
sg339
g1411
sbsS'IwNUIHelpers.h'
p3992
g313
(g1942
g315
Ntp3993
Rp3994
(dp3995
g1946
g1863
sg1947
g2014
sg339
g1868
sbsS'iwresmanager.config.txt'
p3996
g313
(g1942
g315
Ntp3997
Rp3998
(dp3999
g1946
g1460
sg1947
g2302
sg339
g1461
sbsS'IwGxShaderTechnique.h'
p4000
g313
(g1942
g315
Ntp4001
Rp4002
(dp4003
g1946
g1780
sg1947
g2127
sg339
g1810
sbsS'IwCore.h'
p4004
g313
(g1942
g315
Ntp4005
Rp4006
(dp4007
g1946
g1484
sg1947
g1991
sg339
g1499
sbsS'cfloat'
p4008
g313
(g1942
g315
Ntp4009
Rp4010
(dp4011
g1946
g1953
sg1947
g1954
sg339
S'c:/program files/marmalade/7.4/s3e/h/std/c++/cfloat'
p4012
sbsS'IwGeomMat2D.h'
p4013
g313
(g1942
g315
Ntp4014
Rp4015
(dp4016
g1946
g1326
sg1947
g2031
sg339
g1367
sbsS'IwAllocator.h'
p4017
g313
(g1942
g315
Ntp4018
Rp4019
(dp4020
g1946
g1484
sg1947
g1991
sg339
g1493
sbsS'IwUIPickerView.h'
p4021
g313
(g1942
g315
Ntp4022
Rp4023
(dp4024
g1946
g1598
sg1947
g1948
sg339
g1683
sbsS'IwPath.h'
p4025
g313
(g1942
g315
Ntp4026
Rp4027
(dp4028
g1946
g1484
sg1947
g1991
sg339
g1537
sbsS'IwUIFocusHandler2D.h'
p4029
g313
(g1942
g315
Ntp4030
Rp4031
(dp4032
g1946
g1598
sg1947
g1948
sg339
g1741
sbsS'IwTexture.h'
p4033
g313
(g1942
g315
Ntp4034
Rp4035
(dp4036
g1946
g1780
sg1947
g2127
sg339
g1793
sbsS'IwUIDrawableText.h'
p4037
g313
(g1942
g315
Ntp4038
Rp4039
(dp4040
g1946
g1598
sg1947
g1948
sg339
g1748
sbsS'IwGeomVec.h.tpl'
p4041
g313
(g1942
g315
Ntp4042
Rp4043
(dp4044
g1946
g1326
sg1947
g2031
sg339
g1351
sbsS'IwNUIForward.h'
p4045
g313
(g1942
g315
Ntp4046
Rp4047
(dp4048
g1946
g1863
sg1947
g2014
sg339
g1882
sbsS'IwUIElementItem.h'
p4049
g313
(g1942
g315
Ntp4050
Rp4051
(dp4052
g1946
g1598
sg1947
g1948
sg339
g1768
sbsS's3eAccelerometer.h'
p4053
g313
(g1942
g315
Ntp4054
Rp4055
(dp4056
g1946
g1953
sg1947
g1978
sg339
S'c:/program files/marmalade/7.4/s3e/h/s3eAccelerometer.h'
p4057
sbsS'IwUIPropertySet.h'
p4058
g313
(g1942
g315
Ntp4059
Rp4060
(dp4061
g1946
g1598
sg1947
g1948
sg339
g1711
sbsS'setjmp.h'
p4062
g313
(g1942
g315
Ntp4063
Rp4064
(dp4065
g1946
g1953
sg1947
g1984
sg339
S'c:/program files/marmalade/7.4/s3e/h/std/setjmp.h'
p4066
sbsS'IwSoundParams.cpp'
p4067
g313
(g1942
g315
Ntp4068
Rp4069
(dp4070
g1946
g1175
sg1947
g2057
sg339
g1213
sbsS'IwPropertyString.h'
p4071
g313
(g1942
g315
Ntp4072
Rp4073
(dp4074
g1946
g1598
sg1947
g1948
sg339
g1774
sbsS'pngconf.h'
p4075
g313
(g1942
g315
Ntp4076
Rp4077
(dp4078
g1946
g1114
sg1947
g2971
sg339
g1115
sbsS'IwTextParseable.h'
p4079
g313
(g1942
g315
Ntp4080
Rp4081
(dp4082
g1946
g1484
sg1947
g1991
sg339
g1495
sbsS'istream.h'
p4083
g313
(g1942
g315
Ntp4084
Rp4085
(dp4086
g1946
g1953
sg1947
g1954
sg339
S'c:/program files/marmalade/7.4/s3e/h/std/c++/istream.h'
p4087
sbsS'stdint.h'
p4088
g313
(g1942
g315
Ntp4089
Rp4090
(dp4091
g1946
g1953
sg1947
g1984
sg339
S'c:/program files/marmalade/7.4/s3e/h/std/stdint.h'
p4092
sbsS'semaphore.h'
p4093
g313
(g1942
g315
Ntp4094
Rp4095
(dp4096
g1946
g1953
sg1947
g1984
sg339
S'c:/program files/marmalade/7.4/s3e/h/std/semaphore.h'
p4097
sbsS'IwUIFocusHandler.h'
p4098
g313
(g1942
g315
Ntp4099
Rp4100
(dp4101
g1946
g1598
sg1947
g1948
sg339
g1697
sbsS'sstream'
p4102
g313
(g1942
g315
Ntp4103
Rp4104
(dp4105
g1946
g1953
sg1947
g1954
sg339
S'c:/program files/marmalade/7.4/s3e/h/std/c++/sstream'
p4106
sbsS'IwUIAnimation.h'
p4107
g313
(g1942
g315
Ntp4108
Rp4109
(dp4110
g1946
g1598
sg1947
g1948
sg339
g1717
sbsS'IwUISingleton.h'
p4111
g313
(g1942
g315
Ntp4112
Rp4113
(dp4114
g1946
g1598
sg1947
g1948
sg339
g1679
sbsS's3eNUI.h'
p4115
g313
(g1942
g315
Ntp4116
Rp4117
(dp4118
g1946
g1863
sg1947
g2014
sg339
g1884
sbsS'IwUIButton.h'
p4119
g313
(g1942
g315
Ntp4120
Rp4121
(dp4122
g1946
g1598
sg1947
g1948
sg339
g1596
sbsS'IwGeomFBBox.h'
p4123
g313
(g1942
g315
Ntp4124
Rp4125
(dp4126
g1946
g1326
sg1947
g2031
sg339
g1377
sbsS'IwDebugPrim.h'
p4127
g313
(g1942
g315
Ntp4128
Rp4129
(dp4130
g1946
g1780
sg1947
g2127
sg339
g1799
sbsS'AudioManager.h'
p4131
g313
(g1942
g315
Ntp4132
Rp4133
(dp4134
g1946
g1103
sg1947
g2047
sg339
g1933
sbsS'gl2ext.h'
p4135
g313
(g1942
g315
Ntp4136
Rp4137
(dp4138
g1946
g1953
sg1947
g2294
sg339
S'c:/program files/marmalade/7.4/s3e/h/GLES2/gl2ext.h'
p4139
sbsS'GuiTexture.cpp'
p4140
g313
(g1942
g315
Ntp4141
Rp4142
(dp4143
g1946
g1103
sg1947
g2047
sg339
g1913
sbsS'IwDecomposable.h'
p4144
g313
(g1942
g315
Ntp4145
Rp4146
(dp4147
g1946
g1598
sg1947
g1948
sg339
g1731
sbsS'IwGxFontContainer.h'
p4148
g313
(g1942
g315
Ntp4149
Rp4150
(dp4151
g1946
g1304
sg1947
g2288
sg339
g1314
sbsS'IwNUITextField.h'
p4152
g313
(g1942
g315
Ntp4153
Rp4154
(dp4155
g1946
g1402
sg1947
g2112
sg339
g1400
sbsS'IwGeomSVec3.h'
p4156
g313
(g1942
g315
Ntp4157
Rp4158
(dp4159
g1946
g1326
sg1947
g2031
sg339
g1347
sbsS'iw2dscenegraphcore.mkf'
p4160
g313
(g1942
g315
Ntp4161
Rp4162
(dp4163
g1946
g1588
sg1947
g3440
sg339
g1586
sbsS'CollisionManager.h'
p4164
g313
(g1942
g315
Ntp4165
Rp4166
(dp4167
g1946
g1103
sg1947
g2047
sg339
g1221
sbsS's3eExt.h'
p4168
g313
(g1942
g315
Ntp4169
Rp4170
(dp4171
g1946
g1953
sg1947
g1978
sg339
S'c:/program files/marmalade/7.4/s3e/h/s3eExt.h'
p4172
sbsS'IwGeomFVec3.h'
p4173
g313
(g1942
g315
Ntp4174
Rp4175
(dp4176
g1946
g1326
sg1947
g2031
sg339
g1369
sbsS'IwPropertyMap.h'
p4177
g313
(g1942
g315
Ntp4178
Rp4179
(dp4180
g1946
g1598
sg1947
g1948
sg339
g1659
sbsS'gl3ext.h'
p4181
g313
(g1942
g315
Ntp4182
Rp4183
(dp4184
g1946
g1953
sg1947
g3923
sg339
S'c:/program files/marmalade/7.4/s3e/h/GLES3/gl3ext.h'
p4185
sbsS'IwNUILabel.h'
p4186
g313
(g1942
g315
Ntp4187
Rp4188
(dp4189
g1946
g1402
sg1947
g2112
sg339
g1429
sbsS'streambuf'
p4190
g313
(g1942
g315
Ntp4191
Rp4192
(dp4193
g1946
g1953
sg1947
g1954
sg339
S'c:/program files/marmalade/7.4/s3e/h/std/c++/streambuf'
p4194
sbsS's3eMetrics.h'
p4195
g313
(g1942
g315
Ntp4196
Rp4197
(dp4198
g1946
g1953
sg1947
g1997
sg339
S'c:/program files/marmalade/7.4/s3e/h/ext/s3eMetrics.h'
p4199
sbsS'IwNUIToolBarButton.h'
p4200
g313
(g1942
g315
Ntp4201
Rp4202
(dp4203
g1946
g1402
sg1947
g2112
sg339
g1425
sbsS'IwUICheckbox.h'
p4204
g313
(g1942
g315
Ntp4205
Rp4206
(dp4207
g1946
g1598
sg1947
g1948
sg339
g1693
sbsS'IwGxFont.h'
p4208
g313
(g1942
g315
Ntp4209
Rp4210
(dp4211
g1946
g1304
sg1947
g2288
sg339
g1309
sbsS's3eSecureStorage.h'
p4212
g313
(g1942
g315
Ntp4213
Rp4214
(dp4215
g1946
g1953
sg1947
g1978
sg339
S'c:/program files/marmalade/7.4/s3e/h/s3eSecureStorage.h'
p4216
sbsS'IwNUIDelegate.h'
p4217
g313
(g1942
g315
Ntp4218
Rp4219
(dp4220
g1946
g1863
sg1947
g2014
sg339
g1880
sbsS'string.h'
p4221
g313
(g1942
g315
Ntp4222
Rp4223
(dp4224
g1946
g1953
sg1947
g1984
sg339
S'c:/program files/marmalade/7.4/s3e/h/std/string.h'
p4225
sbsS'IwResource.h'
p4226
g313
(g1942
g315
Ntp4227
Rp4228
(dp4229
g1946
g1484
sg1947
g1991
sg339
g1497
sbsS'IwGeomSVec2.h'
p4230
g313
(g1942
g315
Ntp4231
Rp4232
(dp4233
g1946
g1326
sg1947
g2031
sg339
g1355
sbsS'libjpeg.mkf'
p4234
g313
(g1942
g315
Ntp4235
Rp4236
(dp4237
g1946
g1156
sg1947
(lp4238
g1122
asg339
g1154
sbsS'IwGxDebug.h'
p4239
g313
(g1942
g315
Ntp4240
Rp4241
(dp4242
g1946
g1780
sg1947
g2127
sg339
g1818
sbsS'IwUIVisitor.h'
p4243
g313
(g1942
g315
Ntp4244
Rp4245
(dp4246
g1946
g1598
sg1947
g1948
sg339
g1750
sbsS'iomanip.h'
p4247
g313
(g1942
g315
Ntp4248
Rp4249
(dp4250
g1946
g1953
sg1947
g1954
sg339
S'c:/program files/marmalade/7.4/s3e/h/std/c++/iomanip.h'
p4251
sbsS'IwMap.h'
p4252
g313
(g1942
g315
Ntp4253
Rp4254
(dp4255
g1946
g1402
sg1947
g2112
sg339
g1415
sbsS'IwKeymap.h'
p4256
g313
(g1942
g315
Ntp4257
Rp4258
(dp4259
g1946
g1484
sg1947
g1991
sg339
g1580
sbsS'IwDebug.h'
p4260
g313
(g1942
g315
Ntp4261
Rp4262
(dp4263
g1946
g1484
sg1947
g1991
sg339
g1582
sbsS'IwOptimiseThumb.h'
p4264
g313
(g1942
g315
Ntp4265
Rp4266
(dp4267
g1946
g1484
sg1947
g1991
sg339
g1560
sbsS'IwGeomMenu.h'
p4268
g313
(g1942
g315
Ntp4269
Rp4270
(dp4271
g1946
g1326
sg1947
g2031
sg339
g1365
sbsS'IwDivTable.h'
p4272
g313
(g1942
g315
Ntp4273
Rp4274
(dp4275
g1946
g1484
sg1947
g1991
sg339
g1517
sbsS'ctype.h'
p4276
g313
(g1942
g315
Ntp4277
Rp4278
(dp4279
g1946
g1953
sg1947
g1984
sg339
S'c:/program files/marmalade/7.4/s3e/h/std/ctype.h'
p4280
sbsS'IwGeomMat.h'
p4281
g313
(g1942
g315
Ntp4282
Rp4283
(dp4284
g1946
g1326
sg1947
g2031
sg339
g1385
sbsS'IwResGroup.h'
p4285
g313
(g1942
g315
Ntp4286
Rp4287
(dp4288
g1946
g1460
sg1947
g2302
sg339
g1465
sbsS'signal_1.h'
p4289
g313
(g1942
g315
Ntp4290
Rp4291
(dp4292
g1946
g1953
sg1947
g2151
sg339
S'c:/program files/marmalade/7.4/s3e/h/std/sys/signal.h'
p4293
sbsS'IwSoundData.cpp'
p4294
g313
(g1942
g315
Ntp4295
Rp4296
(dp4297
g1946
g1175
sg1947
g2057
sg339
g1178
sbsS'functional'
p4298
g313
(g1942
g315
Ntp4299
Rp4300
(dp4301
g1946
g1953
sg1947
g1954
sg339
S'c:/program files/marmalade/7.4/s3e/h/std/c++/functional'
p4302
sbsS'shm.h'
p4303
g313
(g1942
g315
Ntp4304
Rp4305
(dp4306
g1946
g1953
sg1947
g2151
sg339
S'c:/program files/marmalade/7.4/s3e/h/std/sys/shm.h'
p4307
sbsS'jpegint.h'
p4308
g313
(g1942
g315
Ntp4309
Rp4310
(dp4311
g1946
g1127
sg1947
g2071
sg339
g1140
sbsS'Game.cpp'
p4312
g313
(g1942
g315
Ntp4313
Rp4314
(dp4315
g1946
g1103
sg1947
g2047
sg339
g1250
sbsS'prctl.h'
p4316
g313
(g1942
g315
Ntp4317
Rp4318
(dp4319
g1946
g1953
sg1947
g2151
sg339
S'c:/program files/marmalade/7.4/s3e/h/std/sys/prctl.h'
p4320
sbsS'mem.h'
p4321
g313
(g1942
g315
Ntp4322
Rp4323
(dp4324
g1946
g1953
sg1947
g1954
sg339
S'c:/program files/marmalade/7.4/s3e/h/std/c++/mem.h'
p4325
sbsS'IwGxStream.h'
p4326
g313
(g1942
g315
Ntp4327
Rp4328
(dp4329
g1946
g1780
sg1947
g2127
sg339
g1812
sbsS'IwUILabel.h'
p4330
g313
(g1942
g315
Ntp4331
Rp4332
(dp4333
g1946
g1598
sg1947
g1948
sg339
g1705
sbsS'utility'
p4334
g313
(g1942
g315
Ntp4335
Rp4336
(dp4337
g1946
g1953
sg1947
g1954
sg339
S'c:/program files/marmalade/7.4/s3e/h/std/c++/utility'
p4338
sbsS'IwGeomLegacy.h'
p4339
g313
(g1942
g315
Ntp4340
Rp4341
(dp4342
g1946
g1326
sg1947
g2031
sg339
g1396
sbsS'IwTPage.h'
p4343
g313
(g1942
g315
Ntp4344
Rp4345
(dp4346
g1946
g1780
sg1947
g2127
sg339
g1826
sbsS'IwUITextInput.h'
p4347
g313
(g1942
g315
Ntp4348
Rp4349
(dp4350
g1946
g1598
sg1947
g1948
sg339
g1635
sbsS'IwResSerialise.h'
p4351
g313
(g1942
g315
Ntp4352
Rp4353
(dp4354
g1946
g1460
sg1947
g2302
sg339
g1471
sbsS's3eCrypto.h'
p4355
g313
(g1942
g315
Ntp4356
Rp4357
(dp4358
g1946
g1953
sg1947
g1978
sg339
S'c:/program files/marmalade/7.4/s3e/h/s3eCrypto.h'
p4359
sbsS's3eKeyboard.h'
p4360
g313
(g1942
g315
Ntp4361
Rp4362
(dp4363
g1946
g1953
sg1947
g1978
sg339
S'c:/program files/marmalade/7.4/s3e/h/s3eKeyboard.h'
p4364
sbsS'fcntl.h'
p4365
g313
(g1942
g315
Ntp4366
Rp4367
(dp4368
g1946
g1953
sg1947
g1984
sg339
S'c:/program files/marmalade/7.4/s3e/h/std/fcntl.h'
p4369
sbsS'Iw2DSceneGraphCore.h'
p4370
g313
(g1942
g315
Ntp4371
Rp4372
(dp4373
g1946
g1591
sg1947
g3440
sg339
g1592
sbsS'memory.h'
p4374
g313
(g1942
g315
Ntp4375
Rp4376
(dp4377
g1946
g1953
sg1947
g1984
sg339
S'c:/program files/marmalade/7.4/s3e/h/std/memory.h'
p4378
sbsS'GameSprite.cpp'
p4379
g313
(g1942
g315
Ntp4380
Rp4381
(dp4382
g1946
g1103
sg1947
g2047
sg339
g1935
sbsS'IwUISoftKeyBalloon.h'
p4383
g313
(g1942
g315
Ntp4384
Rp4385
(dp4386
g1946
g1598
sg1947
g1948
sg339
g1677
sbsS'IwUIColour.h'
p4387
g313
(g1942
g315
Ntp4388
Rp4389
(dp4390
g1946
g1598
sg1947
g1948
sg339
g1760
sbsS'pthread.h'
p4391
g313
(g1942
g315
Ntp4392
Rp4393
(dp4394
g1946
g1953
sg1947
g1984
sg339
S'c:/program files/marmalade/7.4/s3e/h/std/pthread.h'
p4395
sbsS'IwGeomIntersect.h'
p4396
g313
(g1942
g315
Ntp4397
Rp4398
(dp4399
g1946
g1326
sg1947
g2031
sg339
g1331
sbsS'netdb.h'
p4400
g313
(g1942
g315
Ntp4401
Rp4402
(dp4403
g1946
g1953
sg1947
g1984
sg339
S'c:/program files/marmalade/7.4/s3e/h/std/netdb.h'
p4404
sbsS'egl_1.h'
p4405
g313
(g1942
g315
Ntp4406
Rp4407
(dp4408
g1946
g1953
sg1947
g2723
sg339
S'c:/program files/marmalade/7.4/s3e/h/GLES/egl.h'
p4409
sbsS's3eAndroidJNI.h'
p4410
g313
(g1942
g315
Ntp4411
Rp4412
(dp4413
g1946
g1953
sg1947
g1997
sg339
S'c:/program files/marmalade/7.4/s3e/h/ext/s3eAndroidJNI.h'
p4414
sbsS'Button.h'
p4415
g313
(g1942
g315
Ntp4416
Rp4417
(dp4418
g1946
g1103
sg1947
g2047
sg339
g1106
sbsS'ostream.h'
p4419
g313
(g1942
g315
Ntp4420
Rp4421
(dp4422
g1946
g1953
sg1947
g1954
sg339
S'c:/program files/marmalade/7.4/s3e/h/std/c++/ostream.h'
p4423
sbsS'stl_user_config.h'
p4424
g313
(g1942
g315
Ntp4425
Rp4426
(dp4427
g1946
g1953
sg1947
g1954
sg339
S'c:/program files/marmalade/7.4/s3e/h/std/c++/stl_user_config.h'
p4428
sbsS'IwProfileMenu.h'
p4429
g313
(g1942
g315
Ntp4430
Rp4431
(dp4432
g1946
g1484
sg1947
g1991
sg339
g1556
sbsS'IwNUIAlertDialog.h'
p4433
g313
(g1942
g315
Ntp4434
Rp4435
(dp4436
g1946
g1402
sg1947
g2112
sg339
g1427
sbsS'IwUITabBar.h'
p4437
g313
(g1942
g315
Ntp4438
Rp4439
(dp4440
g1946
g1598
sg1947
g1948
sg339
g1723
sbsS'MarmaladeVersion.h'
p4441
g313
(g1942
g315
Ntp4442
Rp4443
(dp4444
g1946
g1953
sg1947
g1978
sg339
S'c:/program files/marmalade/7.4/s3e/h/MarmaladeVersion.h'
p4445
sbsS'IwResHandlerWAV.h'
p4446
g313
(g1942
g315
Ntp4447
Rp4448
(dp4449
g1946
g1175
sg1947
g2057
sg339
g1201
sbsS'IwNUICheckBox.h'
p4450
g313
(g1942
g315
Ntp4451
Rp4452
(dp4453
g1946
g1402
sg1947
g2112
sg339
g1413
sbsS'ios.h'
p4454
g313
(g1942
g315
Ntp4455
Rp4456
(dp4457
g1946
g1953
sg1947
g1954
sg339
S'c:/program files/marmalade/7.4/s3e/h/std/c++/ios.h'
p4458
sbsS'IwImageHelper.h'
p4459
g313
(g1942
g315
Ntp4460
Rp4461
(dp4462
g1946
g1484
sg1947
g1991
sg339
g1576
sbsS'hash_set'
p4463
g313
(g1942
g315
Ntp4464
Rp4465
(dp4466
g1946
g1953
sg1947
g1954
sg339
S'c:/program files/marmalade/7.4/s3e/h/std/c++/hash_set'
p4467
sbsS'IwGeomFQuat.h'
p4468
g313
(g1942
g315
Ntp4469
Rp4470
(dp4471
g1946
g1326
sg1947
g2031
sg339
g1379
sbsS'jmorecfg.h'
p4472
g313
(g1942
g315
Ntp4473
Rp4474
(dp4475
g1946
g1127
sg1947
g2071
sg339
g1125
sbsS'eglplatform.h'
p4476
g313
(g1942
g315
Ntp4477
Rp4478
(dp4479
g1946
g1953
sg1947
g2416
sg339
S'c:/program files/marmalade/7.4/s3e/h/EGL/eglplatform.h'
p4480
sbsS'cmath'
p4481
g313
(g1942
g315
Ntp4482
Rp4483
(dp4484
g1946
g1953
sg1947
g1954
sg339
S'c:/program files/marmalade/7.4/s3e/h/std/c++/cmath'
p4485
sbsS'math_gcc.h'
p4486
g313
(g1942
g315
Ntp4487
Rp4488
(dp4489
g1946
g1953
sg1947
g1984
sg339
S'c:/program files/marmalade/7.4/s3e/h/std/math_gcc.h'
p4490
sbsS's3eMemory.h'
p4491
g313
(g1942
g315
Ntp4492
Rp4493
(dp4494
g1946
g1953
sg1947
g1978
sg339
S'c:/program files/marmalade/7.4/s3e/h/s3eMemory.h'
p4495
sbsS'IwUISoftKeyPosition.h'
p4496
g313
(g1942
g315
Ntp4497
Rp4498
(dp4499
g1946
g1598
sg1947
g1948
sg339
g1669
sbsS'strings.h'
p4500
g313
(g1942
g315
Ntp4501
Rp4502
(dp4503
g1946
g1953
sg1947
g1984
sg339
S'c:/program files/marmalade/7.4/s3e/h/std/strings.h'
p4504
sbsS'IwUISoftKeyboard.h'
p4505
g313
(g1942
g315
Ntp4506
Rp4507
(dp4508
g1946
g1598
sg1947
g1948
sg339
g1615
sbsS's3eFile.h'
p4509
g313
(g1942
g315
Ntp4510
Rp4511
(dp4512
g1946
g1953
sg1947
g1978
sg339
S'c:/program files/marmalade/7.4/s3e/h/s3eFile.h'
p4513
sbsS'IwUIStyleManager.h'
p4514
g313
(g1942
g315
Ntp4515
Rp4516
(dp4517
g1946
g1598
sg1947
g1948
sg339
g1627
sbsS'IwGxTypes.h'
p4518
g313
(g1942
g315
Ntp4519
Rp4520
(dp4521
g1946
g1780
sg1947
g2127
sg339
g1785
sbsS'GameSprite.h'
p4522
g313
(g1942
g315
Ntp4523
Rp4524
(dp4525
g1946
g1103
sg1947
g2047
sg339
g1840
sbsS'IwSoundManager.cpp'
p4526
g313
(g1942
g315
Ntp4527
Rp4528
(dp4529
g1946
g1175
sg1947
g2057
sg339
g1209
sbsS'soundengine.mkf'
p4530
g313
(g1942
g315
Ntp4531
Rp4532
(dp4533
g1946
g1192
sg1947
g2057
sg339
g1190
sbsS'resource.h'
p4534
g313
(g1942
g315
Ntp4535
Rp4536
(dp4537
g1946
g1953
sg1947
g2151
sg339
S'c:/program files/marmalade/7.4/s3e/h/std/sys/resource.h'
p4538
sbsS'clocale'
p4539
g313
(g1942
g315
Ntp4540
Rp4541
(dp4542
g1946
g1953
sg1947
g1954
sg339
S'c:/program files/marmalade/7.4/s3e/h/std/c++/clocale'
p4543
sbsS'pvrtextool.mkf'
p4544
g313
(g1942
g315
Ntp4545
Rp4546
(dp4547
g1946
g1857
sg1947
g2781
sg339
g1855
sbsS'IwUIAlignment.h'
p4548
g313
(g1942
g315
Ntp4549
Rp4550
(dp4551
g1946
g1598
sg1947
g1948
sg339
g1623
sbsS'csetjmp'
p4552
g313
(g1942
g315
Ntp4553
Rp4554
(dp4555
g1946
g1953
sg1947
g1954
sg339
S'c:/program files/marmalade/7.4/s3e/h/std/c++/csetjmp'
p4556
sbsS'IwNUIListbox.h'
p4557
g313
(g1942
g315
Ntp4558
Rp4559
(dp4560
g1946
g1402
sg1947
g2112
sg339
g1407
sbsS'IwTextParserITX.h'
p4561
g313
(g1942
g315
Ntp4562
Rp4563
(dp4564
g1946
g1484
sg1947
g1991
sg339
g1564
sbsS'IwUILayoutForm.h'
p4565
g313
(g1942
g315
Ntp4566
Rp4567
(dp4568
g1946
g1598
sg1947
g1948
sg339
g1737
sbsS'stdexcept'
p4569
g313
(g1942
g315
Ntp4570
Rp4571
(dp4572
g1946
g1953
sg1947
g1954
sg339
S'c:/program files/marmalade/7.4/s3e/h/std/c++/stdexcept'
p4573
sbsS'math.h'
p4574
g313
(g1942
g315
Ntp4575
Rp4576
(dp4577
g1946
g1953
sg1947
g1984
sg339
S'c:/program files/marmalade/7.4/s3e/h/std/math.h'
p4578
sbsS'stdbool.h'
p4579
g313
(g1942
g315
Ntp4580
Rp4581
(dp4582
g1946
g1953
sg1947
g1984
sg339
S'c:/program files/marmalade/7.4/s3e/h/std/stdbool.h'
p4583
sbsS'uio.h'
p4584
g313
(g1942
g315
Ntp4585
Rp4586
(dp4587
g1946
g1953
sg1947
g2151
sg339
S'c:/program files/marmalade/7.4/s3e/h/std/sys/uio.h'
p4588
sbsS'IwUncopyable.h'
p4589
g313
(g1942
g315
Ntp4590
Rp4591
(dp4592
g1946
g1484
sg1947
g1991
sg339
g1515
sbssS'juice_build_type'
p4593
g4
sS'tests'
p4594
(lp4595
sS'project_name'
p4596
g321
sS'root_file'
p4597
g123
sS'current_root'
p4598
S'd:/Git/Year2/fga2.gt2/SprayAndPray'
p4599
sS'dependencies'
p4600
(lp4601
sS'include_paths'
p4602
(lp4603
S'c:/program files/marmalade/7.4/modules/iwutil/h'
p4604
aS'c:/program files/marmalade/7.4/modules/third_party/libjpeg/h'
p4605
aS'c:/program files/marmalade/7.4/modules/third_party/zlib/h'
p4606
aS'c:/program files/marmalade/7.4/modules/third_party/libpng/h'
p4607
aS'c:/program files/marmalade/7.4/modules/iw2dscenegraphcore/h'
p4608
aS'c:/program files/marmalade/7.4/modules/iw2dscenegraph/h'
p4609
aS'c:/program files/marmalade/7.4/modules/iw2d/h'
p4610
aS'c:/program files/marmalade/7.4/modules/iwgx/h'
p4611
aS'c:/program files/marmalade/7.4/modules/iwgl/h'
p4612
aS'c:/program files/marmalade/7.4/modules/iwgeom/h'
p4613
aS'c:/program files/marmalade/7.4/modules/iwresmanager/h'
p4614
aS'c:/program files/marmalade/7.4/extensions/pvrtextool/h'
p4615
aS'c:/program files/marmalade/7.4/modules/iwgxfont/h'
p4616
aS'c:/program files/marmalade/7.4/modules/third_party/tiniconv/source'
p4617
aS'c:/program files/marmalade/7.4/modules/iwnui/h'
p4618
aS'c:/program files/marmalade/7.4/extensions/s3enui/h'
p4619
aS'c:/program files/marmalade/7.4/modules/iwui/h'
p4620
aS'c:/program files/marmalade/7.4/modules/iwtween/h'
p4621
aS'd:/git/year2/fga2.gt2/sprayandpray/SoundEngine/h'
p4622
aS'd:/git/year2/fga2.gt2/sprayandpray/SoundEngine/source'
p4623
aS'c:/program files/marmalade/7.4/s3e/h'
p4624
aS'c:/program files/marmalade/7.4/s3e/h/ext'
p4625
aS'c:/program files/marmalade/7.4/s3e/h/std'
p4626
aS'c:/program files/marmalade/7.4/s3e/h/std/c++'
p4627
aS'c:/program files/marmalade/7.4/s3e/h/ext_legacy'
p4628
aS'c:/program files/marmalade/7.4/s3e/h/legacy'
p4629
asS'weak_frameworks'
p4630
(lp4631
sS'extprojects'
p4632
(dp4633
sg620
(dp4634
g614
(lp4635
(S'd:/Git/Year2/fga2.gt2/SprayAndPray/data-ram/data-gles1/images.group.bin,d:/Git/Year2/fga2.gt2/SprayAndPray/data/images.group.bin'
p4636
S'images.group.bin'
p4637
I0
tp4638
a(S'd:/Git/Year2/fga2.gt2/SprayAndPray/data-ram/data-gles1/audio.group.bin,d:/Git/Year2/fga2.gt2/SprayAndPray/data/audio.group.bin'
p4639
S'audio.group.bin'
p4640
I0
tp4641
a(S'd:/Git/Year2/fga2.gt2/SprayAndPray/data-ram/data-gles1/fonts.group.bin,d:/Git/Year2/fga2.gt2/SprayAndPray/data/fonts.group.bin'
p4642
S'fonts.group.bin'
p4643
I0
tp4644
assS'macro_types'
p4645
(dp4646
g536
I0
sg538
I1
sg539
I0
sg540
I0
sg541
I0
sg542
I0
sg543
I0
sg544
I0
sg545
I0
sg546
I0
sg547
I0
sg548
I0
sg550
I0
sg551
I0
sg552
I0
sg553
I0
sg554
I0
sg555
I0
sg556
I0
sg557
I0
sg558
I0
sg560
I0
sg561
I0
sg562
I0
sg563
I0
sg564
I0
sg565
I0
sg566
I0
sg567
I1
sg568
I0
sg569
I0
sg570
I0
sg571
I0
sg573
I01
sg574
I1
sg575
I0
sg576
I0
sg577
I0
sg578
I0
sg579
I0
sg580
I0
sg581
I0
sg582
I0
sg583
I0
sg584
I0
sg585
I0
sg586
I0
ssS'commands'
p4647
(lp4648
sg622
(g1094
S'VC12'
p4649
S'X86ARM'
p4650
tp4651
sS'build_libs'
p4652
(dp4653
sg624
g0
sS'frameworks'
p4654
(lp4655
sS'environ'
p4656
(dp4657
sS'target_name_debug'
p4658
g321
sS'builders'
p4659
(dp4660
g614
(dp4661
S'.S'
p4662
(dp4663
S'rvct'
p4664
(lp4665
S'.obj'
p4666
aS'echo ARM Assembling(RVCT) ${SOURCE}...'
p4667
aS'c:/program files/marmalade/7.4/s3e\\rvct\\bin\\armasm -o ${TARGET} ${SOURCE}'
p4668
asg447
(lp4669
g4666
aS'echo ARM Assembling(GCC) ${SOURCE}...'
p4670
aS'c:/program files/marmalade/7.4/s3e\\gcc\\bin\\arm-none-eabi-gcc -c -o ${TARGET} ${SOURCE}'
p4671
asS'ppu'
p4672
(lp4673
S'.a'
p4674
aS'echo PPU Assembling(SNC) ${SOURCE}...'
p4675
aS'c:/program files/marmalade/7.4/s3e\\rvct\\bin\\armasm -o ${TARGET} ${SOURCE}'
p4676
assS'.s'
p4677
g4663
sS'.vp'
p4678
(lp4679
NaS'"C:/Program Files/Marmalade/7.4/s3e/python/python.exe" "c:/program files/marmalade/7.4/modules/iwgx/tools/compile_shaders.py" ${SOURCE}'
p4680
asssS'extproject_names'
p4681
(lp4682
sbtp4683
.